L251 LINKER/LOCATER V4.66.93.0                                                          04/10/2023  09:21:47  PAGE 1


L251 LINKER/LOCATER V4.66.93.0, INVOKED BY:
D:\MDK5\C251\BIN\L251.EXE .\Out_File\board.obj, .\Out_File\common.obj, .\Out_File\SEEKFREE_PRINTF.obj, ..\..\Libraries\l
>> ibraries\STC_DFP.LIB, .\Out_File\zf_adc.obj, .\Out_File\zf_delay.obj, .\Out_File\zf_exti.obj, .\Out_File\zf_gpio.obj,
>>  .\Out_File\zf_iic.obj, .\Out_File\zf_nvic.obj, .\Out_File\zf_pwm.obj, .\Out_File\zf_spi.obj, .\Out_File\zf_tim.obj, 
>> .\Out_File\zf_uart.obj, .\Out_File\SEEKFREE_18TFT.obj, .\Out_File\SEEKFREE_ABSOLUTE_ENCODER.obj, .\Out_File\SEEKFREE_
>> FONT.obj, .\Out_File\SEEKFREE_ICM20602.obj, .\Out_File\SEEKFREE_IIC.obj, .\Out_File\SEEKFREE_IPS114_SPI.obj, .\Out_Fi
>> le\SEEKFREE_MPU6050.obj, .\Out_File\SEEKFREE_OLED.obj, .\Out_File\SEEKFREE_TSL1401.obj, .\Out_File\SEEKFREE_VIRSCO.ob
>> j, .\Out_File\SEEKFREE_WIRELESS.obj, .\Out_File\isr.obj, .\Out_File\main.obj, .\Out_File\Function.obj, .\Out_File\fus
>> e.obj, .\Out_File\speed.obj, .\Out_File\DirectioN.obj, .\Out_File\debug.obj, .\Out_File\NewOther.obj TO .\Out_File\SE
>> EKFREE PRINT (.\Out_File\SEEKFREE.map) CASE DISABLEWARNING (16, 57) REMOVEUNUSED CLASSES (EDATA (0X0-0X1FFF), HDATA (
>> 0X0-0X1FFF))


CPU MODE:     251 SOURCE MODE
INTR FRAME:   2 BYTES SAVED ON INTERRUPT
MEMORY MODEL: XSMALL WITH FLOATING POINT ARITHMETIC


INPUT MODULES INCLUDED:
  .\Out_File\board.obj (board)
         COMMENT TYPE 0: C251 V5.60.0
  .\Out_File\common.obj (common)
         COMMENT TYPE 0: C251 V5.60.0
  .\Out_File\SEEKFREE_PRINTF.obj (SEEKFREE_PRINTF)
         COMMENT TYPE 0: C251 V5.60.0
  ..\..\Libraries\libraries\STC_DFP.LIB (DFPMU_SP)
         COMMENT TYPE 0: A251 V4.69.5.0
  .\Out_File\zf_adc.obj (zf_adc)
         COMMENT TYPE 0: C251 V5.60.0
  .\Out_File\zf_delay.obj (zf_delay)
         COMMENT TYPE 0: C251 V5.60.0
  .\Out_File\zf_exti.obj (zf_exti)
         COMMENT TYPE 0: C251 V5.60.0
  .\Out_File\zf_gpio.obj (zf_gpio)
         COMMENT TYPE 0: C251 V5.60.0
  .\Out_File\zf_iic.obj (zf_iic)
         COMMENT TYPE 0: C251 V5.60.0
  .\Out_File\zf_nvic.obj (zf_nvic)
         COMMENT TYPE 0: C251 V5.60.0
  .\Out_File\zf_pwm.obj (zf_pwm)
         COMMENT TYPE 0: C251 V5.60.0
  .\Out_File\zf_spi.obj (zf_spi)
         COMMENT TYPE 0: C251 V5.60.0
  .\Out_File\zf_tim.obj (zf_tim)
         COMMENT TYPE 0: C251 V5.60.0
  .\Out_File\zf_uart.obj (zf_uart)
         COMMENT TYPE 0: C251 V5.60.0
  .\Out_File\SEEKFREE_18TFT.obj (SEEKFREE_18TFT)
         COMMENT TYPE 0: C251 V5.60.0
  .\Out_File\SEEKFREE_ABSOLUTE_ENCODER.obj (SEEKFREE_ABSOLUTE_ENCODER)
         COMMENT TYPE 0: C251 V5.60.0
  .\Out_File\SEEKFREE_FONT.obj (SEEKFREE_FONT)
         COMMENT TYPE 0: C251 V5.60.0
  .\Out_File\SEEKFREE_ICM20602.obj (SEEKFREE_ICM20602)
         COMMENT TYPE 0: C251 V5.60.0
  .\Out_File\SEEKFREE_IIC.obj (SEEKFREE_IIC)
         COMMENT TYPE 0: C251 V5.60.0
  .\Out_File\SEEKFREE_IPS114_SPI.obj (SEEKFREE_IPS114_SPI)
         COMMENT TYPE 0: C251 V5.60.0
  .\Out_File\SEEKFREE_MPU6050.obj (SEEKFREE_MPU6050)
         COMMENT TYPE 0: C251 V5.60.0
  .\Out_File\SEEKFREE_OLED.obj (SEEKFREE_OLED)
         COMMENT TYPE 0: C251 V5.60.0
  .\Out_File\SEEKFREE_TSL1401.obj (SEEKFREE_TSL1401)
         COMMENT TYPE 0: C251 V5.60.0
  .\Out_File\SEEKFREE_VIRSCO.obj (SEEKFREE_VIRSCO)
L251 LINKER/LOCATER V4.66.93.0                                                        04/10/2023  09:21:47  PAGE 2


         COMMENT TYPE 0: C251 V5.60.0
  .\Out_File\SEEKFREE_WIRELESS.obj (SEEKFREE_WIRELESS)
         COMMENT TYPE 0: C251 V5.60.0
  .\Out_File\isr.obj (isr)
         COMMENT TYPE 0: C251 V5.60.0
  .\Out_File\main.obj (main)
         COMMENT TYPE 0: C251 V5.60.0
  .\Out_File\Function.obj (Function)
         COMMENT TYPE 0: C251 V5.60.0
  .\Out_File\fuse.obj (fuse)
         COMMENT TYPE 0: C251 V5.60.0
  .\Out_File\speed.obj (speed)
         COMMENT TYPE 0: C251 V5.60.0
  .\Out_File\DirectioN.obj (DirectioN)
         COMMENT TYPE 0: C251 V5.60.0
  .\Out_File\debug.obj (debug)
         COMMENT TYPE 0: C251 V5.60.0
  .\Out_File\NewOther.obj (NewOther)
         COMMENT TYPE 0: C251 V5.60.0
  D:\MDK5\C251\LIB\C2SFPXS.LIB (SPRINTF)
         COMMENT TYPE 0: A251 V4.69.6.0
  D:\MDK5\C251\LIB\C2SFPXS.LIB (?C?PRNFMT)
         COMMENT TYPE 0: A251 V4.69.6.0
  D:\MDK5\C251\LIB\C2SFPXS.LIB (?C?FPCONVERT)
         COMMENT TYPE 0: A251 V4.69.6.0
  D:\MDK5\C251\LIB\C2SFPXS.LIB (?C?FTNPWR)
         COMMENT TYPE 0: A251 V4.69.6.0
  D:\MDK5\C251\LIB\C2SXS.LIB (?C_START)
         COMMENT TYPE 0: A251 V4.69.6.0
  D:\MDK5\C251\LIB\C2SXS.LIB (?C?INITEDATA)
         COMMENT TYPE 0: A251 V4.69.6.0
  D:\MDK5\C251\LIB\C2SXS.LIB (?C?SIDIV)
         COMMENT TYPE 0: A251 V4.69.6.0
  D:\MDK5\C251\LIB\C2SXS.LIB (?C?LMUL)
         COMMENT TYPE 0: A251 V4.69.6.0
  D:\MDK5\C251\LIB\C2SXS.LIB (?C?LIMUL)
         COMMENT TYPE 0: A251 V4.69.6.0
  D:\MDK5\C251\LIB\C2SXS.LIB (?C?ULDIV)
         COMMENT TYPE 0: A251 V4.69.6.0
  D:\MDK5\C251\LIB\C2SXS.LIB (?C?SLDIV)
         COMMENT TYPE 0: A251 V4.69.6.0
  D:\MDK5\C251\LIB\C2SXS.LIB (?C?BMOVENP)
         COMMENT TYPE 0: A251 V4.69.6.0
  D:\MDK5\C251\LIB\C2SXS.LIB (memcpy)
         COMMENT TYPE 0: C251 V5.58.7
  D:\MDK5\C251\LIB\C2SXS.LIB (?C?INITEDATA_END)
         COMMENT TYPE 0: A251 V4.69.6.0


ACTIVE MEMORY CLASSES OF MODULE:  .\Out_File\SEEKFREE (board)

BASE        START       END         USED      MEMORY CLASS
==========================================================
000000H     000000H     001FFFH     0004F9H   EDATA
000000H     000000H     001FFFH               HDATA
FF0000H     FF0000H     FFFFFFH     003ACAH   CODE
000000H     FF0000H     FFFFFFH     00058FH   HCONST
FF0000H     FF0000H     FFFFFFH     000004H   CONST
000000H     000000H     00007FH     000008H   DATA


MEMORY MAP OF MODULE:  .\Out_File\SEEKFREE (board)


START     STOP      LENGTH    ALIGN  RELOC    MEMORY CLASS   SEGMENT NAME
L251 LINKER/LOCATER V4.66.93.0                                                        04/10/2023  09:21:47  PAGE 3


=========================================================================
000000H   000007H   000008H   ---    AT..     DATA           "REG BANK 0"
000008H   000108H   000101H   BYTE   UNIT     EDATA          ?ED?SEEKFREE_TSL1401
000109H   0001D5H   0000CDH   BYTE   UNIT     EDATA          ?ED?ZF_UART
0001D6H   000286H   0000B1H   BYTE   UNIT     EDATA          ?ED?FUNCTION
000287H   0002FAH   000074H   BYTE   UNIT     EDATA          _EDATA_GROUP_
0002FBH   00034DH   000053H   BYTE   UNIT     EDATA          ?ED?SPEED
00034EH   00039EH   000051H   BYTE   UNIT     EDATA          ?ED?DIRECTION
00039FH   0003B7H   000019H   BYTE   UNIT     EDATA          ?ED?DEBUG
0003B8H   0003C3H   00000CH   BYTE   UNIT     EDATA          ?ED?SEEKFREE_ICM20602
0003C4H   0003CFH   00000CH   BYTE   UNIT     EDATA          ?ED?SEEKFREE_MPU6050
0003D0H   0003D9H   00000AH   BYTE   UNIT     EDATA          ?ED?SEEKFREE_VIRSCO
0003DAH   0003E3H   00000AH   BYTE   UNIT     EDATA          ?ED?FUSE
0003E4H   0003ECH   000009H   BYTE   UNIT     EDATA          ?ED?NEWOTHER
0003EDH   0003F3H   000007H   BYTE   UNIT     EDATA          ?ED?SEEKFREE_IIC
0003F4H   0003F8H   000005H   BYTE   UNIT     EDATA          ?ED?ISR
0003F9H   0003FCH   000004H   BYTE   UNIT     EDATA          ?ED?BOARD
0003FDH   000400H   000004H   BYTE   UNIT     EDATA          ?ED?ZF_DELAY
000401H   000500H   000100H   BYTE   UNIT     EDATA          ?STACK
000501H   FEFFFFH   FEFAFFH   ---    ---      **GAP**
FF0000H   FF0002H   000003H   ---    OFFS..   CODE           ?CO?start251?4
FF0003H   FF0005H   000003H   ---    OFFS..   CODE           ?PR?IV?0
FF0006H   FF0009H   000004H   BYTE   UNIT     CODE           ?PR?FPADD?DFPMU_SP
FF000AH   FF000AH   000001H   BYTE   INSEG    CODE           ?PR?INT1_ISR?ISR
FF000BH   FF000DH   000003H   ---    OFFS..   CODE           ?PR?IV?1
FF000EH   FF0011H   000004H   BYTE   UNIT     CODE           ?PR?FPSUB?DFPMU_SP
FF0012H   FF0012H   000001H   BYTE   INSEG    CODE           ?PR?TM0_ISR?ISR
FF0013H   FF0015H   000003H   ---    OFFS..   CODE           ?PR?IV?2
FF0016H   FF0019H   000004H   BYTE   UNIT     CODE           ?PR?FPMUL?DFPMU_SP
FF001AH   FF001AH   000001H   ---    ---      **GAP**
FF001BH   FF001DH   000003H   ---    OFFS..   CODE           ?PR?IV?3
FF001EH   FF0021H   000004H   BYTE   UNIT     CODE           ?PR?FPDIV?DFPMU_SP
FF0022H   FF0022H   000001H   ---    ---      **GAP**
FF0023H   FF0025H   000003H   ---    OFFS..   CODE           ?PR?IV?4
FF0026H   FF003EH   000019H   BYTE   INSEG    CODE           ?PR?SOFT_DELAY?FUNCTION
FF003FH   FF0042H   000004H   BYTE   UNIT     CODE           ?PR?SQRT?DFPMU_SP
FF0043H   FF0045H   000003H   ---    OFFS..   CODE           ?PR?IV?8
FF0046H   FF0051H   00000CH   BYTE   UNIT     CODE           ?PR?FPCMP?DFPMU_SP
FF0052H   FF0052H   000001H   ---    ---      **GAP**
FF0053H   FF0055H   000003H   ---    OFFS..   CODE           ?PR?IV?10
FF0056H   FF0059H   000004H   BYTE   UNIT     CODE           ?PR?FCASTL?DFPMU_SP
FF005AH   FF005AH   000001H   ---    ---      **GAP**
FF005BH   FF005DH   000003H   ---    OFFS..   CODE           ?PR?IV?11
FF005EH   FF0060H   000003H   BYTE   INSEG    CODE           ?PR?ENABLEGLOBALIRQ?BOARD
FF0061H   FF0062H   000002H   ---    ---      **GAP**
FF0063H   FF0065H   000003H   ---    OFFS..   CODE           ?PR?IV?12
FF0066H   FF007CH   000017H   BYTE   INSEG    CODE           ?PR?DELAY_MS?ZF_DELAY
FF007DH   FF0082H   000006H   BYTE   UNIT     CODE           ?PR?CASTF?DFPMU_SP
FF0083H   FF0085H   000003H   ---    OFFS..   CODE           ?PR?IV?16
FF0086H   FF0088H   000003H   BYTE   INSEG    CODE           ?PR?DISABLEGLOBALIRQ?BOARD
FF0089H   FF008AH   000002H   ---    ---      **GAP**
FF008BH   FF008DH   000003H   ---    OFFS..   CODE           ?PR?IV?17
FF008EH   FF0090H   000003H   BYTE   INSEG    CODE           ?PR?WIRELESS_UART_CALLBACK?SEEKFREE_WIRELESS
FF0091H   FF0092H   000002H   ---    ---      **GAP**
FF0093H   FF0095H   000003H   ---    OFFS..   CODE           ?PR?IV?18
FF0096H   FF0099H   000004H   BYTE   UNIT     CONST          ?CO?PRINTF
FF009AH   FF009AH   000001H   ---    ---      **GAP**
FF009BH   FF009DH   000003H   ---    OFFS..   CODE           ?PR?IV?19
FF009EH   FF00A2H   000005H   ---    ---      **GAP**
FF00A3H   FF00A5H   000003H   ---    OFFS..   CODE           ?PR?IV?20
FF00A6H   FF0EADH   000E08H   BYTE   UNIT     CODE           ?CO?SEEKFREE_FONT
FF0EAEH   FF1571H   0006C4H   BYTE   UNIT     CODE           ?C?LIB_CODE
FF1572H   FF1968H   0003F7H   BYTE   INSEG    CODE           ?PR?GPIO_MODE?ZF_GPIO
FF1969H   FF1C4CH   0002E4H   BYTE   INSEG    CODE           ?PR?PWM_INIT?ZF_PWM
FF1C4DH   FF1EEDH   0002A1H   BYTE   INSEG    CODE           ?PR?PWM_SET_GPIO?ZF_PWM
L251 LINKER/LOCATER V4.66.93.0                                                        04/10/2023  09:21:47  PAGE 4


FF1EEEH   FF20F4H   000207H   BYTE   INSEG    CODE           ?PR?ANNULUS_ANALYSIS?DIRECTION
FF20F5H   FF22ECH   0001F8H   BYTE   INSEG    CODE           ?PR?OUTINGARAGE?NEWOTHER
FF22EDH   FF24DAH   0001EEH   BYTE   INSEG    CODE           ?PR?LCD_INIT?SEEKFREE_18TFT
FF24DBH   FF2699H   0001BFH   BYTE   INSEG    CODE           ?PR?UART_INIT?ZF_UART
FF269AH   FF27E8H   00014FH   BYTE   INSEG    CODE           ?PR?SANC_CHA_KOU_ANALYSIS?DIRECTION
FF27E9H   FF2912H   00012AH   BYTE   INSEG    CODE           ?PR?MAIN?MAIN
FF2913H   FF2A3AH   000128H   BYTE   INSEG    CODE           ?PR?GO_MOTOR?SPEED
FF2A3BH   FF2B3CH   000102H   BYTE   INSEG    CODE           ?PR?PLACEPID_CONTROL?FUNCTION
FF2B3DH   FF2C1BH   0000DFH   BYTE   INSEG    CODE           ?PR?SPI_INIT?ZF_SPI
FF2C1CH   FF2CEAH   0000CFH   BYTE   INSEG    CODE           ?PR?FUSE_RESULT?FUSE
FF2CEBH   FF2DB2H   0000C8H   BYTE   INSEG    CODE           ?PR?AD_DATE_FITIER?DIRECTION
FF2DB3H   FF2E6CH   0000BAH   BYTE   INSEG    CODE           ?PR?SET_CLK?BOARD
FF2E6DH   FF2F24H   0000B8H   BYTE   INSEG    CODE           ?PR?PWM_DUTY?ZF_PWM
FF2F25H   FF2FD5H   0000B1H   BYTE   INSEG    CODE           ?PR?TM1_ISR?ISR
FF2FD6H   FF3078H   0000A3H   BYTE   INSEG    CODE           ?PR?INITIALIZE?MAIN
FF3079H   FF310CH   000094H   BYTE   INSEG    CODE           ?PR?PIT_TIMER_MS?ZF_TIM
FF310DH   FF319CH   000090H   BYTE   INSEG    CODE           ?PR?BOARD_INIT?BOARD
FF319DH   FF322BH   00008FH   BYTE   INSEG    CODE           ?PR?SWITCH_KEY_INIT?DEBUG
FF322CH   FF32B9H   00008EH   BYTE   INSEG    CODE           ?PR?LCD_SHOWCHAR?SEEKFREE_18TFT
FF32BAH   FF333FH   000086H   BYTE   INSEG    CODE           ?PR?INIT_PWM?SPEED
FF3340H   FF33C2H   000083H   BYTE   INSEG    CODE           ?PR?SPEED_MEASURE?SPEED
FF33C3H   FF3430H   00006EH   BYTE   INSEG    CODE           ?PR?GPIO_PULL_SET?ZF_GPIO
FF3431H   FF349EH   00006EH   BYTE   INSEG    CODE           ?PR?STOP_ANALYSE?NEWOTHER
FF349FH   FF34FCH   00005EH   BYTE   INSEG    CODE           ?PR?ADC_INIT?ZF_ADC
FF34FDH   FF354DH   000051H   BYTE   INSEG    CODE           ?PR?CTIMER_COUNT_CLEAN?ZF_TIM
FF354EH   FF359DH   000050H   BYTE   INSEG    CODE           ?PR?LCD_SET_REGION?SEEKFREE_18TFT
FF359EH   FF35EBH   00004EH   BYTE   INSEG    CODE           ?PR?LCD_SHOWSTR?SEEKFREE_18TFT
FF35ECH   FF3638H   00004DH   BYTE   INSEG    CODE           ?PR?CTIMER_COUNT_READ?ZF_TIM
FF3639H   FF3682H   00004AH   BYTE   INSEG    CODE           ?PR?CTIMER_COUNT_INIT?ZF_TIM
FF3683H   FF36CBH   000049H   BYTE   INSEG    CODE           ?PR?ADC_MEAN_FILTER?ZF_ADC
FF36CCH   FF3712H   000047H   BYTE   INSEG    CODE           ?PR?CHA_BI_HE_SQRT?FUNCTION
FF3713H   FF3757H   000045H   BYTE   INSEG    CODE           ?PR?UART4_ISR?ISR
FF3758H   FF3797H   000040H   BYTE   INSEG    CODE           ?PR?STRATEGY_SLECT?DEBUG
FF3798H   FF37AAH   000013H   BYTE   UNIT     CODE           ?C_C51STARTUP
FF37ABH   FF37D3H   000029H   BYTE   UNIT     CODE           ?C_C51STARTUP?2
FF37D4H   FF37D6H   000003H   BYTE   UNIT     CODE           ?C_C51STARTUP?3
FF37D7H   FF3814H   00003EH   BYTE   INSEG    CODE           ?PR?EXIT_INIT?ZF_EXTI
FF3815H   FF3851H   00003DH   BYTE   INSEG    CODE           ?PR?UART1_ISR?ISR
FF3852H   FF388AH   000039H   BYTE   INSEG    CODE           ?PR?DELAY_INIT?ZF_DELAY
FF388BH   FF38C3H   000039H   BYTE   INSEG    CODE           ?PR?I_MEDIAN_AVERAGE_FILTER?FUNCTION
FF38C4H   FF38F1H   00002EH   BYTE   INSEG    CODE           ?PR?ADC_ONCE?ZF_ADC
FF38F2H   FF391EH   00002DH   BYTE   INSEG    CODE           ?PR?ADC_INT?DIRECTION
FF391FH   FF3949H   00002BH   BYTE   INSEG    CODE           ?PR?LCD_CLEAR?SEEKFREE_18TFT
FF394AH   FF3972H   000029H   BYTE   INSEG    CODE           ?PR?STEERING_CONTROL_OUT?DIRECTION
FF3973H   FF3996H   000024H   BYTE   INSEG    CODE           ?PR?PID_PARAMETER_INIT?FUNCTION
FF3997H   FF39B8H   000022H   BYTE   INSEG    CODE           ?PR?INT0_ISR?ISR
FF39B9H   FF39D8H   000020H   BYTE   INSEG    CODE           ?PR?INT3_ISR?ISR
FF39D9H   FF39F7H   00001FH   BYTE   INSEG    CODE           ?PR?LCD_WRITEDATA_16BIT?SEEKFREE_18TFT
FF39F8H   FF3A15H   00001EH   BYTE   INSEG    CODE           ?PR?UART2_ISR?ISR
FF3A16H   FF3A33H   00001EH   BYTE   INSEG    CODE           ?PR?UART3_ISR?ISR
FF3A34H   FF3A51H   00001EH   BYTE   INSEG    CODE           ?PR?FLAG_INIT?FUSE
FF3A52H   FF3A64H   000013H   BYTE   INSEG    CODE           ?PR?INIT_STEER_PWM?DIRECTION
FF3A65H   FF3A75H   000011H   BYTE   INSEG    CODE           ?PR?ENCODER_INIT?SPEED
FF3A76H   FF3A83H   00000EH   BYTE   INSEG    CODE           ?PR?SPI_MOSI?ZF_SPI
FF3A84H   FF3A8DH   00000AH   BYTE   INSEG    CODE           ?PR?LCD_WRITEINDEX?SEEKFREE_18TFT
FF3A8EH   FF3A97H   00000AH   BYTE   INSEG    CODE           ?PR?LCD_WRITEDATA?SEEKFREE_18TFT
FF3A98H   FF3AA0H   000009H   BYTE   INSEG    CODE           ?PR?ELECTROMAGNETISM_CONTROL?DIRECTION
FF3AA1H   FF3AA8H   000008H   BYTE   INSEG    CODE           ?PR?INT2_ISR?ISR
FF3AA9H   FF3AB0H   000008H   BYTE   INSEG    CODE           ?PR?INT4_ISR?ISR
FF3AB1H   FF3AB8H   000008H   BYTE   INSEG    CODE           ?PR?TM2_ISR?ISR
FF3AB9H   FF3AC0H   000008H   BYTE   INSEG    CODE           ?PR?TM3_ISR?ISR
FF3AC1H   FF3AC8H   000008H   BYTE   INSEG    CODE           ?PR?TM4_ISR?ISR
FF3AC9H   FF3AD0H   000008H   BYTE   INSEG    CODE           ?PR?BUZZ_DIDIDI?DEBUG
FF3AD1H   FF3AD7H   000007H   BYTE   UNIT     CODE           ?PR?FCHS?DFPMU_SP
FF3AD8H   FF3ADDH   000006H   BYTE   UNIT     CODE           ?PR?FCASTI?DFPMU_SP
L251 LINKER/LOCATER V4.66.93.0                                                        04/10/2023  09:21:47  PAGE 5


FF3ADEH   FF3D0BH   00022EH   BYTE   UNIT     HCONST         ?C_INITEDATA
FF3D0CH   FF3E74H   000169H   BYTE   UNIT     HCONST         ?HC?SEEKFREE_FONT
FF3E75H   FF3F74H   000100H   BYTE   UNIT     HCONST         ?HC?DEBUG
FF3F75H   FF3FE7H   000073H   BYTE   UNIT     HCONST         ?HC?MAIN
FF3FE8H   FF403FH   000058H   BYTE   UNIT     HCONST         ?HC?ZF_PWM
FF4040H   FF4056H   000017H   BYTE   UNIT     HCONST         ?HC?ZF_UART
FF4057H   FF4060H   00000AH   BYTE   UNIT     HCONST         ?HC?SEEKFREE_OLED
FF4061H   FF4066H   000006H   BYTE   UNIT     HCONST         ?HC?SEEKFREE_18TFT
FF4067H   FF406CH   000006H   BYTE   UNIT     HCONST         ?HC?SEEKFREE_IPS114_SPI

* * * * * * * * *   R E M O V E D     S E G M E N T S   * * * * * * * *
   *DEL*:           0001A9H   BYTE   INSEG    CODE           ?PR?GET_CLK?BOARD
   *DEL*:           00000EH   BYTE   INSEG    CODE           ?PR?PUTCHAR?BOARD
   *DEL*:           000092H   BYTE   INSEG    CODE           ?PR?NUMBER_CONVERSION_ASCII?SEEKFREE_PRINTF
   *DEL*:           0004FAH   BYTE   INSEG    CODE           ?PR?ZF_SPRINTF?SEEKFREE_PRINTF
   *DEL*:           00003EH   BYTE   INSEG    CODE           ?PR?PRINTF_REVERSE_ORDER?SEEKFREE_PRINTF
   *DEL*:           000001H   BYTE   UNIT     EDATA          ?ED?NUMBER_CONVERSION_ASCII?SEEKFREE_PRINTF
   *DEL*:           00005FH   BYTE   UNIT     EDATA          ?ED?ZF_SPRINTF?SEEKFREE_PRINTF
   *DEL*:           000006H   BYTE   UNIT     CODE           ?PR?FXAM?DFPMU_SP
   *DEL*:           000007H   BYTE   UNIT     CODE           ?PR?FABS?DFPMU_SP
   *DEL*:           000004H   BYTE   UNIT     CODE           ?PR?SIN?DFPMU_SP
   *DEL*:           000004H   BYTE   UNIT     CODE           ?PR?COS?DFPMU_SP
   *DEL*:           000004H   BYTE   UNIT     CODE           ?PR?TAN?DFPMU_SP
   *DEL*:           00000AH   BYTE   UNIT     CODE           ?PR?ATAN?DFPMU_SP
   *DEL*:           000006H   BYTE   UNIT     CODE           ?PR?FCASTC?DFPMU_SP
   *DEL*:           000004H   BYTE   UNIT     CODE           ?PR?FCLEX?DFPMU_SP
   *DEL*:           000004H   BYTE   UNIT     CODE           ?PR?FINIT?DFPMU_SP
   *DEL*:           000006H   BYTE   UNIT     CODE           ?PR?FPSRR?DFPMU_SP
   *DEL*:           000006H   BYTE   UNIT     CODE           ?PR?FPSRW?DFPMU_SP
   *DEL*:           000006H   BYTE   UNIT     CODE           ?PR?FPCRR?DFPMU_SP
   *DEL*:           000006H   BYTE   UNIT     CODE           ?PR?FPCRW?DFPMU_SP
   *DEL*:           000019H   BYTE   INSEG    CODE           ?PR?DELAY_US?ZF_DELAY
   *DEL*:           000017H   BYTE   INSEG    CODE           ?PR?SEND_DATA?ZF_IIC
   *DEL*:           00002FH   BYTE   INSEG    CODE           ?PR?IIC_CHANGE_PIN?ZF_IIC
   *DEL*:           00001CH   BYTE   INSEG    CODE           ?PR?RECV_DATA?ZF_IIC
   *DEL*:           000010H   BYTE   INSEG    CODE           ?PR?START?ZF_IIC
   *DEL*:           000045H   BYTE   INSEG    CODE           ?PR?WAIT?ZF_IIC
   *DEL*:           000018H   BYTE   INSEG    CODE           ?PR?SEND_ACK?ZF_IIC
   *DEL*:           000010H   BYTE   INSEG    CODE           ?PR?RECV_ACK?ZF_IIC
   *DEL*:           000010H   BYTE   INSEG    CODE           ?PR?STOP?ZF_IIC
   *DEL*:           000019H   BYTE   INSEG    CODE           ?PR?SEND_NAK?ZF_IIC
   *DEL*:           00005EH   BYTE   INSEG    CODE           ?PR?IIC_INIT?ZF_IIC
   *DEL*:           000075H   BYTE   INSEG    CODE           ?PR?IIC_READ_REG?ZF_IIC
   *DEL*:           00009CH   BYTE   INSEG    CODE           ?PR?IIC_READ_REG_BYTES?ZF_IIC
   *DEL*:           000060H   BYTE   INSEG    CODE           ?PR?IIC_WRITE_REG?ZF_IIC
   *DEL*:           000015H   BYTE   INSEG    CODE           ?PR?IIC_DELAY_US?ZF_IIC
   *DEL*:           000004H   BYTE   UNIT     EDATA          ?ED?IIC_INIT?ZF_IIC
   *DEL*:           000004H   BYTE   UNIT     EDATA          ?ED?IIC_READ_REG?ZF_IIC
   *DEL*:           000003H   BYTE   UNIT     EDATA          ?ED?IIC_READ_REG_BYTES?ZF_IIC
   *DEL*:           00006CH   BYTE   INSEG    CODE           ?PR?NVIC_SETPRIORITY?ZF_NVIC
   *DEL*:           000121H   BYTE   INSEG    CODE           ?PR?PWM_FREQ?ZF_PWM
   *DEL*:           000004H   BYTE   UNIT     EDATA          ?ED?PWM_FREQ?ZF_PWM
   *DEL*:           00001DH   BYTE   INSEG    CODE           ?PR?SPI_CHANGE_MODE?ZF_SPI
   *DEL*:           0000AEH   BYTE   INSEG    CODE           ?PR?SPI_CHANGE_PIN?ZF_SPI
   *DEL*:           000054H   BYTE   INSEG    CODE           ?PR?UART_PUTCHAR?ZF_UART
   *DEL*:           00002DH   BYTE   INSEG    CODE           ?PR?UART_PUTBUFF?ZF_UART
   *DEL*:           00002DH   BYTE   INSEG    CODE           ?PR?UART_PUTSTR?ZF_UART
   *DEL*:           0000B7H   BYTE   INSEG    CODE           ?PR?DATA_SEND?ZF_UART
   *DEL*:           000004H   BYTE   UNIT     EDATA          ?ED?UART_PUTBUFF?ZF_UART
   *DEL*:           000004H   BYTE   UNIT     EDATA          ?ED?UART_PUTSTR?ZF_UART
   *DEL*:           000017H   BYTE   UNIT     EDATA          ?ED?DATA_SEND?ZF_UART
   *DEL*:           00008BH   BYTE   INSEG    CODE           ?PR?LCD_SHOWUINT16?SEEKFREE_18TFT
   *DEL*:           000082H   BYTE   INSEG    CODE           ?PR?LCD_SHOWINT32_SIMSPI?SEEKFREE_18TFT
   *DEL*:           0000DDH   BYTE   INSEG    CODE           ?PR?LCD_SHOWINT16_SIMSPI?SEEKFREE_18TFT
   *DEL*:           000082H   BYTE   INSEG    CODE           ?PR?LCD_SHOWINT32?SEEKFREE_18TFT
L251 LINKER/LOCATER V4.66.93.0                                                        04/10/2023  09:21:47  PAGE 6


   *DEL*:           0000DDH   BYTE   INSEG    CODE           ?PR?LCD_SHOWINT16?SEEKFREE_18TFT
   *DEL*:           00002BH   BYTE   INSEG    CODE           ?PR?LCD_CLEAR_SIMSPI?SEEKFREE_18TFT
   *DEL*:           00004EH   BYTE   INSEG    CODE           ?PR?LCD_SHOWSTR_SIMSPI?SEEKFREE_18TFT
   *DEL*:           000029H   BYTE   INSEG    CODE           ?PR?LCD_WRITEINDEX_SIMSPI?SEEKFREE_18TFT
   *DEL*:           000029H   BYTE   INSEG    CODE           ?PR?LCD_WRITEDATA_SIMSPI?SEEKFREE_18TFT
   *DEL*:           00002CH   BYTE   INSEG    CODE           ?PR?LCD_WRITEDATA_16BIT_SIMSPI?SEEKFREE_18TFT
   *DEL*:           00004CH   BYTE   INSEG    CODE           ?PR?LCD_SET_REGION_SIMSPI?SEEKFREE_18TFT
   *DEL*:           0001EFH   BYTE   INSEG    CODE           ?PR?LCD_INIT_SIMSPI?SEEKFREE_18TFT
   *DEL*:           00009AH   BYTE   INSEG    CODE           ?PR?SHOWIMAGE?SEEKFREE_18TFT
   *DEL*:           00007BH   BYTE   INSEG    CODE           ?PR?LCD_SHOWUINT8_SIMSPI?SEEKFREE_18TFT
   *DEL*:           00007BH   BYTE   INSEG    CODE           ?PR?LCD_SHOWUINT8?SEEKFREE_18TFT
   *DEL*:           0000B9H   BYTE   INSEG    CODE           ?PR?LCD_SHOWINT8_SIMSPI?SEEKFREE_18TFT
   *DEL*:           0000B9H   BYTE   INSEG    CODE           ?PR?LCD_SHOWINT8?SEEKFREE_18TFT
   *DEL*:           0000F8H   BYTE   INSEG    CODE           ?PR?LCD_SHOWFLOAT_SIMSPI?SEEKFREE_18TFT
   *DEL*:           000013H   BYTE   INSEG    CODE           ?PR?LCD_DRAWPOINT_SIMSPI?SEEKFREE_18TFT
   *DEL*:           0000F8H   BYTE   INSEG    CODE           ?PR?LCD_SHOWFLOAT?SEEKFREE_18TFT
   *DEL*:           000013H   BYTE   INSEG    CODE           ?PR?LCD_DRAWPOINT?SEEKFREE_18TFT
   *DEL*:           00008EH   BYTE   INSEG    CODE           ?PR?LCD_SHOWCHAR_SIMSPI?SEEKFREE_18TFT
   *DEL*:           00008BH   BYTE   INSEG    CODE           ?PR?LCD_SHOWUINT16_SIMSPI?SEEKFREE_18TFT
   *DEL*:           000004H   BYTE   UNIT     EDATA          ?ED?LCD_SET_REGION_SIMSPI?SEEKFREE_18TFT
   *DEL*:           000004H   BYTE   UNIT     EDATA          ?ED?LCD_SHOWCHAR_SIMSPI?SEEKFREE_18TFT
   *DEL*:           000006H   BYTE   UNIT     EDATA          ?ED?LCD_SHOWSTR_SIMSPI?SEEKFREE_18TFT
   *DEL*:           000005H   BYTE   UNIT     EDATA          ?ED?LCD_SHOWINT8_SIMSPI?SEEKFREE_18TFT
   *DEL*:           000004H   BYTE   UNIT     EDATA          ?ED?LCD_SHOWUINT8_SIMSPI?SEEKFREE_18TFT
   *DEL*:           000008H   BYTE   UNIT     EDATA          ?ED?LCD_SHOWINT16_SIMSPI?SEEKFREE_18TFT
   *DEL*:           000006H   BYTE   UNIT     EDATA          ?ED?LCD_SHOWUINT16_SIMSPI?SEEKFREE_18TFT
   *DEL*:           000028H   BYTE   UNIT     EDATA          ?ED?LCD_SHOWINT32_SIMSPI?SEEKFREE_18TFT
   *DEL*:           00002BH   BYTE   UNIT     EDATA          ?ED?LCD_SHOWFLOAT_SIMSPI?SEEKFREE_18TFT
   *DEL*:           000005H   BYTE   UNIT     EDATA          ?ED?LCD_SHOWINT8?SEEKFREE_18TFT
   *DEL*:           000004H   BYTE   UNIT     EDATA          ?ED?LCD_SHOWUINT8?SEEKFREE_18TFT
   *DEL*:           000008H   BYTE   UNIT     EDATA          ?ED?LCD_SHOWINT16?SEEKFREE_18TFT
   *DEL*:           000006H   BYTE   UNIT     EDATA          ?ED?LCD_SHOWUINT16?SEEKFREE_18TFT
   *DEL*:           000028H   BYTE   UNIT     EDATA          ?ED?LCD_SHOWINT32?SEEKFREE_18TFT
   *DEL*:           00002BH   BYTE   UNIT     EDATA          ?ED?LCD_SHOWFLOAT?SEEKFREE_18TFT
   *DEL*:           000008H   BYTE   UNIT     EDATA          ?ED?SHOWIMAGE?SEEKFREE_18TFT
   *DEL*:           000011H   BYTE   INSEG    CODE           ?PR?ENCODER_SELF4_CHECK?SEEKFREE_ABSOLUTE_ENCODER
   *DEL*:           000011H   BYTE   INSEG    CODE           ?PR?ENCODER_SELF5_CHECK?SEEKFREE_ABSOLUTE_ENCODER
   *DEL*:           00002FH   BYTE   INSEG    CODE           ?PR?ENCODER_SPI_R_REG_BYTE?SEEKFREE_ABSOLUTE_ENCODER
   *DEL*:           000005H   BYTE   INSEG    CODE           ?PR?ENCODER_DELAY_US?SEEKFREE_ABSOLUTE_ENCODER
   *DEL*:           000038H   BYTE   INSEG    CODE           ?PR?ENCODER_SPI_W_REG_BYTE?SEEKFREE_ABSOLUTE_ENCODER
   *DEL*:           00001CH   BYTE   INSEG    CODE           ?PR?SIMSPI_R_REG_BYTE?SEEKFREE_ABSOLUTE_ENCODER
   *DEL*:           00001AH   BYTE   INSEG    CODE           ?PR?SIMSPI_W_REG_BYTE?SEEKFREE_ABSOLUTE_ENCODER
   *DEL*:           000029H   BYTE   INSEG    CODE           ?PR?ENCODER_INIT_SPI?SEEKFREE_ABSOLUTE_ENCODER
   *DEL*:           000004H   BYTE   INSEG    CODE           ?PR?SPI_WR_BYTE?SEEKFREE_ABSOLUTE_ENCODER
   *DEL*:           000024H   BYTE   INSEG    CODE           ?PR?SET_ZERO_POSITION_SIMSPI?SEEKFREE_ABSOLUTE_ENCODER
   *DEL*:           000023H   BYTE   INSEG    CODE           ?PR?ENCODER_ANGLE_SIMSPI?SEEKFREE_ABSOLUTE_ENCODER
   *DEL*:           00001CH   BYTE   INSEG    CODE           ?PR?SPI_R_REG_BYTE?SEEKFREE_ABSOLUTE_ENCODER
   *DEL*:           00001AH   BYTE   INSEG    CODE           ?PR?SPI_W_REG_BYTE?SEEKFREE_ABSOLUTE_ENCODER
   *DEL*:           00002FH   BYTE   INSEG    CODE           ?PR?ENCODER_SIMSPI_R_REG_BYTE?SEEKFREE_ABSOLUTE_ENCODER
   *DEL*:           000038H   BYTE   INSEG    CODE           ?PR?ENCODER_SIMSPI_W_REG_BYTE?SEEKFREE_ABSOLUTE_ENCODER
   *DEL*:           00000FH   BYTE   INSEG    CODE           ?PR?ENCODER_INIT_SIMSPI?SEEKFREE_ABSOLUTE_ENCODER
   *DEL*:           000024H   BYTE   INSEG    CODE           ?PR?SET_ZERO_POSITION_SPI?SEEKFREE_ABSOLUTE_ENCODER
   *DEL*:           00001FH   BYTE   INSEG    CODE           ?PR?SIMSPI_WR_BYTE?SEEKFREE_ABSOLUTE_ENCODER
   *DEL*:           000023H   BYTE   INSEG    CODE           ?PR?ENCODER_ANGLE_SPI?SEEKFREE_ABSOLUTE_ENCODER
   *DEL*:           000001H   BYTE   UNIT     EDATA          ?ED?ENCODER_SELF4_CHECK?SEEKFREE_ABSOLUTE_ENCODER
   *DEL*:           000001H   BYTE   UNIT     EDATA          ?ED?ENCODER_SELF5_CHECK?SEEKFREE_ABSOLUTE_ENCODER
   *DEL*:           00001FH   BYTE   INSEG    CODE           ?PR?ICM_SIMSPI_WR_BYTE?SEEKFREE_ICM20602
   *DEL*:           000075H   BYTE   INSEG    CODE           ?PR?ICM20602_INIT_SIMIIC?SEEKFREE_ICM20602
   *DEL*:           000042H   BYTE   INSEG    CODE           ?PR?ICM_SIMSPI_R_REG_BYTES?SEEKFREE_ICM20602
   *DEL*:           00001CH   BYTE   INSEG    CODE           ?PR?ICM_SIMSPI_R_REG_BYTE?SEEKFREE_ICM20602
   *DEL*:           000013H   BYTE   INSEG    CODE           ?PR?ICM_SIMSPI_W_REG_BYTE?SEEKFREE_ICM20602
   *DEL*:           000059H   BYTE   INSEG    CODE           ?PR?ICM20602_INIT_SIMSPI?SEEKFREE_ICM20602
   *DEL*:           00002BH   BYTE   INSEG    CODE           ?PR?ICM20602_SELF1_CHECK?SEEKFREE_ICM20602
   *DEL*:           000011H   BYTE   INSEG    CODE           ?PR?ICM20602_SELF4_CHECK?SEEKFREE_ICM20602
   *DEL*:           000044H   BYTE   INSEG    CODE           ?PR?GET_ICM20602_GYRO_SIMIIC?SEEKFREE_ICM20602
L251 LINKER/LOCATER V4.66.93.0                                                        04/10/2023  09:21:47  PAGE 7


   *DEL*:           000044H   BYTE   INSEG    CODE           ?PR?GET_ICM20602_ACCDATA_SIMIIC?SEEKFREE_ICM20602
   *DEL*:           00003FH   BYTE   INSEG    CODE           ?PR?GET_ICM20602_GYRO_SIMSPI?SEEKFREE_ICM20602
   *DEL*:           00003DH   BYTE   INSEG    CODE           ?PR?GET_ICM20602_ACCDATA_SIMSPI?SEEKFREE_ICM20602
   *DEL*:           000006H   BYTE   UNIT     EDATA          ?ED?GET_ICM20602_ACCDATA_SIMIIC?SEEKFREE_ICM20602
   *DEL*:           000006H   BYTE   UNIT     EDATA          ?ED?GET_ICM20602_GYRO_SIMIIC?SEEKFREE_ICM20602
   *DEL*:           000003H   BYTE   UNIT     EDATA          ?ED?ICM_SIMSPI_R_REG_BYTES?SEEKFREE_ICM20602
   *DEL*:           000001H   BYTE   UNIT     EDATA          ?ED?ICM20602_SELF4_CHECK?SEEKFREE_ICM20602
   *DEL*:           000001H   BYTE   UNIT     EDATA          ?ED?ICM20602_INIT_SIMSPI?SEEKFREE_ICM20602
   *DEL*:           000006H   BYTE   UNIT     EDATA          ?ED?GET_ICM20602_ACCDATA_SIMSPI?SEEKFREE_ICM20602
   *DEL*:           000006H   BYTE   UNIT     EDATA          ?ED?GET_ICM20602_GYRO_SIMSPI?SEEKFREE_ICM20602
   *DEL*:           00000FH   BYTE   INSEG    CODE           ?PR?SIMIIC_START?SEEKFREE_IIC
   *DEL*:           000066H   BYTE   INSEG    CODE           ?PR?SIMIIC_READ_REGS?SEEKFREE_IIC
   *DEL*:           000001H   BYTE   INSEG    CODE           ?PR?SIMIIC_INIT?SEEKFREE_IIC
   *DEL*:           000034H   BYTE   INSEG    CODE           ?PR?SIMIIC_READ_REG?SEEKFREE_IIC
   *DEL*:           000011H   BYTE   INSEG    CODE           ?PR?SIMIIC_STOP?SEEKFREE_IIC
   *DEL*:           000022H   BYTE   INSEG    CODE           ?PR?SIMIIC_WRITE_REG?SEEKFREE_IIC
   *DEL*:           000020H   BYTE   INSEG    CODE           ?PR?SIMIIC_SENDACK?SEEKFREE_IIC
   *DEL*:           00003BH   BYTE   INSEG    CODE           ?PR?READ_CH?SEEKFREE_IIC
   *DEL*:           00002EH   BYTE   INSEG    CODE           ?PR?SEND_CH?SEEKFREE_IIC
   *DEL*:           00001CH   BYTE   INSEG    CODE           ?PR?SCCB_WAITACK?SEEKFREE_IIC
   *DEL*:           00000BH   BYTE   INSEG    CODE           ?PR?SIMIIC_DELAY?SEEKFREE_IIC
   *DEL*:           000005H   BYTE   UNIT     EDATA          ?ED?SIMIIC_READ_REGS?SEEKFREE_IIC
   *DEL*:           00007BH   BYTE   INSEG    CODE           ?PR?IPS114_SHOWUINT8_SIMSPI?SEEKFREE_IPS114_SPI
   *DEL*:           000077H   BYTE   INSEG    CODE           ?PR?IPS114_SHOWUINT8?SEEKFREE_IPS114_SPI
   *DEL*:           0000B9H   BYTE   INSEG    CODE           ?PR?IPS114_SHOWINT8_SIMSPI?SEEKFREE_IPS114_SPI
   *DEL*:           0000B5H   BYTE   INSEG    CODE           ?PR?IPS114_SHOWINT8?SEEKFREE_IPS114_SPI
   *DEL*:           00001FH   BYTE   INSEG    CODE           ?PR?IPS114_WRITEDATA_16BIT?SEEKFREE_IPS114_SPI
   *DEL*:           0000F8H   BYTE   INSEG    CODE           ?PR?IPS114_SHOWFLOAT_SIMSPI?SEEKFREE_IPS114_SPI
   *DEL*:           000013H   BYTE   INSEG    CODE           ?PR?IPS114_DRAWPOINT_SIMSPI?SEEKFREE_IPS114_SPI
   *DEL*:           0000F8H   BYTE   INSEG    CODE           ?PR?IPS114_SHOWFLOAT?SEEKFREE_IPS114_SPI
   *DEL*:           000013H   BYTE   INSEG    CODE           ?PR?IPS114_DRAWPOINT?SEEKFREE_IPS114_SPI
   *DEL*:           00008EH   BYTE   INSEG    CODE           ?PR?IPS114_SHOWCHAR_SIMSPI?SEEKFREE_IPS114_SPI
   *DEL*:           00008EH   BYTE   INSEG    CODE           ?PR?IPS114_SHOWCHAR?SEEKFREE_IPS114_SPI
   *DEL*:           00008BH   BYTE   INSEG    CODE           ?PR?IPS114_SHOWUINT16_SIMSPI?SEEKFREE_IPS114_SPI
   *DEL*:           00008BH   BYTE   INSEG    CODE           ?PR?IPS114_SHOWUINT16?SEEKFREE_IPS114_SPI
   *DEL*:           000082H   BYTE   INSEG    CODE           ?PR?IPS114_SHOWINT32_SIMSPI?SEEKFREE_IPS114_SPI
   *DEL*:           0000DDH   BYTE   INSEG    CODE           ?PR?IPS114_SHOWINT16_SIMSPI?SEEKFREE_IPS114_SPI
   *DEL*:           000082H   BYTE   INSEG    CODE           ?PR?IPS114_SHOWINT32?SEEKFREE_IPS114_SPI
   *DEL*:           0000D9H   BYTE   INSEG    CODE           ?PR?IPS114_SHOWINT16?SEEKFREE_IPS114_SPI
   *DEL*:           00003CH   BYTE   INSEG    CODE           ?PR?IPS114_CLEAR_SIMSPI?SEEKFREE_IPS114_SPI
   *DEL*:           00003CH   BYTE   INSEG    CODE           ?PR?IPS114_CLEAR?SEEKFREE_IPS114_SPI
   *DEL*:           00002CH   BYTE   INSEG    CODE           ?PR?IPS114_WRITEDATAI_16BIT_SIMSPI?SEEKFREE_IPS114_SPI
   *DEL*:           00004EH   BYTE   INSEG    CODE           ?PR?IPS114_SHOWSTR_SIMSPI?SEEKFREE_IPS114_SPI
   *DEL*:           00004EH   BYTE   INSEG    CODE           ?PR?IPS114_SHOWSTR?SEEKFREE_IPS114_SPI
   *DEL*:           000029H   BYTE   INSEG    CODE           ?PR?IPS114_WRITEINDEX_SIMSPI?SEEKFREE_IPS114_SPI
   *DEL*:           000029H   BYTE   INSEG    CODE           ?PR?IPS114_WRITEDATA_SIMSPI?SEEKFREE_IPS114_SPI
   *DEL*:           00000AH   BYTE   INSEG    CODE           ?PR?IPS114_WRITEINDEX?SEEKFREE_IPS114_SPI
   *DEL*:           00000AH   BYTE   INSEG    CODE           ?PR?IPS114_WRITEDATA?SEEKFREE_IPS114_SPI
   *DEL*:           000044H   BYTE   INSEG    CODE           ?PR?IPS114_SET_REGION_SIMSPI?SEEKFREE_IPS114_SPI
   *DEL*:           00014FH   BYTE   INSEG    CODE           ?PR?IPS114_INIT_SIMSPI?SEEKFREE_IPS114_SPI
   *DEL*:           000048H   BYTE   INSEG    CODE           ?PR?IPS114_SET_REGION?SEEKFREE_IPS114_SPI
   *DEL*:           00016DH   BYTE   INSEG    CODE           ?PR?IPS114_INIT?SEEKFREE_IPS114_SPI
   *DEL*:           000004H   BYTE   UNIT     EDATA          ?ED?IPS114_SET_REGION_SIMSPI?SEEKFREE_IPS114_SPI
   *DEL*:           000002H   BYTE   UNIT     EDATA          ?ED?IPS114_CLEAR_SIMSPI?SEEKFREE_IPS114_SPI
   *DEL*:           000004H   BYTE   UNIT     EDATA          ?ED?IPS114_SHOWCHAR_SIMSPI?SEEKFREE_IPS114_SPI
   *DEL*:           000006H   BYTE   UNIT     EDATA          ?ED?IPS114_SHOWSTR_SIMSPI?SEEKFREE_IPS114_SPI
   *DEL*:           000005H   BYTE   UNIT     EDATA          ?ED?IPS114_SHOWINT8_SIMSPI?SEEKFREE_IPS114_SPI
   *DEL*:           000004H   BYTE   UNIT     EDATA          ?ED?IPS114_SHOWUINT8_SIMSPI?SEEKFREE_IPS114_SPI
   *DEL*:           000008H   BYTE   UNIT     EDATA          ?ED?IPS114_SHOWINT16_SIMSPI?SEEKFREE_IPS114_SPI
   *DEL*:           000006H   BYTE   UNIT     EDATA          ?ED?IPS114_SHOWUINT16_SIMSPI?SEEKFREE_IPS114_SPI
   *DEL*:           000028H   BYTE   UNIT     EDATA          ?ED?IPS114_SHOWINT32_SIMSPI?SEEKFREE_IPS114_SPI
   *DEL*:           00002BH   BYTE   UNIT     EDATA          ?ED?IPS114_SHOWFLOAT_SIMSPI?SEEKFREE_IPS114_SPI
   *DEL*:           000002H   BYTE   UNIT     EDATA          ?ED?IPS114_WRITEDATA_16BIT?SEEKFREE_IPS114_SPI
   *DEL*:           000004H   BYTE   UNIT     EDATA          ?ED?IPS114_SET_REGION?SEEKFREE_IPS114_SPI
   *DEL*:           000002H   BYTE   UNIT     EDATA          ?ED?IPS114_CLEAR?SEEKFREE_IPS114_SPI
L251 LINKER/LOCATER V4.66.93.0                                                        04/10/2023  09:21:47  PAGE 8


   *DEL*:           000004H   BYTE   UNIT     EDATA          ?ED?IPS114_SHOWCHAR?SEEKFREE_IPS114_SPI
   *DEL*:           000006H   BYTE   UNIT     EDATA          ?ED?IPS114_SHOWSTR?SEEKFREE_IPS114_SPI
   *DEL*:           000005H   BYTE   UNIT     EDATA          ?ED?IPS114_SHOWINT8?SEEKFREE_IPS114_SPI
   *DEL*:           000004H   BYTE   UNIT     EDATA          ?ED?IPS114_SHOWUINT8?SEEKFREE_IPS114_SPI
   *DEL*:           000008H   BYTE   UNIT     EDATA          ?ED?IPS114_SHOWINT16?SEEKFREE_IPS114_SPI
   *DEL*:           000006H   BYTE   UNIT     EDATA          ?ED?IPS114_SHOWUINT16?SEEKFREE_IPS114_SPI
   *DEL*:           000028H   BYTE   UNIT     EDATA          ?ED?IPS114_SHOWINT32?SEEKFREE_IPS114_SPI
   *DEL*:           00002BH   BYTE   UNIT     EDATA          ?ED?IPS114_SHOWFLOAT?SEEKFREE_IPS114_SPI
   *DEL*:           000055H   BYTE   INSEG    CODE           ?PR?MPU6050_INIT?SEEKFREE_MPU6050
   *DEL*:           00002CH   BYTE   INSEG    CODE           ?PR?MPU6050_SELF1_CHECK?SEEKFREE_MPU6050
   *DEL*:           000044H   BYTE   INSEG    CODE           ?PR?MPU6050_GET_GYRO?SEEKFREE_MPU6050
   *DEL*:           000044H   BYTE   INSEG    CODE           ?PR?MPU6050_GET_ACCDATA?SEEKFREE_MPU6050
   *DEL*:           000006H   BYTE   UNIT     EDATA          ?ED?MPU6050_GET_ACCDATA?SEEKFREE_MPU6050
   *DEL*:           000006H   BYTE   UNIT     EDATA          ?ED?MPU6050_GET_GYRO?SEEKFREE_MPU6050
   *DEL*:           000033H   BYTE   INSEG    CODE           ?PR?OLED_PUTPIXEL?SEEKFREE_OLED
   *DEL*:           000032H   BYTE   INSEG    CODE           ?PR?OLED_HEXASCII_SPI?SEEKFREE_OLED
   *DEL*:           000023H   BYTE   INSEG    CODE           ?PR?OLED_SET_POS?SEEKFREE_OLED
   *DEL*:           000325H   BYTE   INSEG    CODE           ?PR?OLED_DIS_BMP_SPI?SEEKFREE_OLED
   *DEL*:           0000F8H   BYTE   INSEG    CODE           ?PR?OLED_PRINTF_FLOAT?SEEKFREE_OLED
   *DEL*:           0000E8H   BYTE   INSEG    CODE           ?PR?OLED_P8X16STR_SPI?SEEKFREE_OLED
   *DEL*:           00002AH   BYTE   INSEG    CODE           ?PR?OLED_CLRPIXEL_SPI?SEEKFREE_OLED
   *DEL*:           000029H   BYTE   INSEG    CODE           ?PR?OLED_WRCMD?SEEKFREE_OLED
   *DEL*:           000090H   BYTE   INSEG    CODE           ?PR?OLED_PRINT_CHINESE_SPI?SEEKFREE_OLED
   *DEL*:           000029H   BYTE   INSEG    CODE           ?PR?OLED_WRDAT?SEEKFREE_OLED
   *DEL*:           000033H   BYTE   INSEG    CODE           ?PR?OLED_FILL?SEEKFREE_OLED
   *DEL*:           000082H   BYTE   INSEG    CODE           ?PR?OLED_PRINTF_INT32?SEEKFREE_OLED
   *DEL*:           00001DH   BYTE   INSEG    CODE           ?PR?OLED_UINT16?SEEKFREE_OLED
   *DEL*:           000031H   BYTE   INSEG    CODE           ?PR?OLED_PUTPIXEL_SPI?SEEKFREE_OLED
   *DEL*:           000021H   BYTE   INSEG    CODE           ?PR?OLED_SET_POS_SPI?SEEKFREE_OLED
   *DEL*:           0000A9H   BYTE   INSEG    CODE           ?PR?OLED_P6X8STR?SEEKFREE_OLED
   *DEL*:           00004BH   BYTE   INSEG    CODE           ?PR?OLED_INT16?SEEKFREE_OLED
   *DEL*:           0000A3H   BYTE   INSEG    CODE           ?PR?OLED_INIT?SEEKFREE_OLED
   *DEL*:           0000F8H   BYTE   INSEG    CODE           ?PR?OLED_PRINTF_FLOAT_SPI?SEEKFREE_OLED
   *DEL*:           00000AH   BYTE   INSEG    CODE           ?PR?OLED_WRCMD_SPI?SEEKFREE_OLED
   *DEL*:           0001C0H   BYTE   INSEG    CODE           ?PR?OLED_P14X16STR?SEEKFREE_OLED
   *DEL*:           00000AH   BYTE   INSEG    CODE           ?PR?OLED_WRDAT_SPI?SEEKFREE_OLED
   *DEL*:           000032H   BYTE   INSEG    CODE           ?PR?OLED_HEXASCII?SEEKFREE_OLED
   *DEL*:           000033H   BYTE   INSEG    CODE           ?PR?OLED_FILL_SPI?SEEKFREE_OLED
   *DEL*:           000082H   BYTE   INSEG    CODE           ?PR?OLED_PRINTF_INT32_SPI?SEEKFREE_OLED
   *DEL*:           00001DH   BYTE   INSEG    CODE           ?PR?OLED_UINT16_SPI?SEEKFREE_OLED
   *DEL*:           0000A9H   BYTE   INSEG    CODE           ?PR?OLED_P6X8STR_SPI?SEEKFREE_OLED
   *DEL*:           00004BH   BYTE   INSEG    CODE           ?PR?OLED_INT16_SPI?SEEKFREE_OLED
   *DEL*:           00033BH   BYTE   INSEG    CODE           ?PR?OLED_DIS_BMP?SEEKFREE_OLED
   *DEL*:           0000BFH   BYTE   INSEG    CODE           ?PR?OLED_INIT_SPI?SEEKFREE_OLED
   *DEL*:           0000E8H   BYTE   INSEG    CODE           ?PR?OLED_P8X16STR?SEEKFREE_OLED
   *DEL*:           00002CH   BYTE   INSEG    CODE           ?PR?OLED_CLRPIXEL?SEEKFREE_OLED
   *DEL*:           000090H   BYTE   INSEG    CODE           ?PR?OLED_PRINT_CHINESE?SEEKFREE_OLED
   *DEL*:           000005H   BYTE   UNIT     EDATA          ?ED?OLED_P6X8STR?SEEKFREE_OLED
   *DEL*:           000005H   BYTE   UNIT     EDATA          ?ED?OLED_P8X16STR?SEEKFREE_OLED
   *DEL*:           000007H   BYTE   UNIT     EDATA          ?ED?OLED_UINT16?SEEKFREE_OLED
   *DEL*:           000007H   BYTE   UNIT     EDATA          ?ED?OLED_INT16?SEEKFREE_OLED
   *DEL*:           000028H   BYTE   UNIT     EDATA          ?ED?OLED_PRINTF_INT32?SEEKFREE_OLED
   *DEL*:           00002BH   BYTE   UNIT     EDATA          ?ED?OLED_PRINTF_FLOAT?SEEKFREE_OLED
   *DEL*:           00000CH   BYTE   UNIT     EDATA          ?ED?OLED_DIS_BMP?SEEKFREE_OLED
   *DEL*:           00000AH   BYTE   UNIT     EDATA          ?ED?OLED_PRINT_CHINESE?SEEKFREE_OLED
   *DEL*:           000007H   BYTE   UNIT     EDATA          ?ED?OLED_P14X16STR?SEEKFREE_OLED
   *DEL*:           000005H   BYTE   UNIT     EDATA          ?ED?OLED_P6X8STR_SPI?SEEKFREE_OLED
   *DEL*:           000005H   BYTE   UNIT     EDATA          ?ED?OLED_P8X16STR_SPI?SEEKFREE_OLED
   *DEL*:           000007H   BYTE   UNIT     EDATA          ?ED?OLED_UINT16_SPI?SEEKFREE_OLED
   *DEL*:           000007H   BYTE   UNIT     EDATA          ?ED?OLED_INT16_SPI?SEEKFREE_OLED
   *DEL*:           000028H   BYTE   UNIT     EDATA          ?ED?OLED_PRINTF_INT32_SPI?SEEKFREE_OLED
   *DEL*:           00002BH   BYTE   UNIT     EDATA          ?ED?OLED_PRINTF_FLOAT_SPI?SEEKFREE_OLED
   *DEL*:           00000CH   BYTE   UNIT     EDATA          ?ED?OLED_DIS_BMP_SPI?SEEKFREE_OLED
   *DEL*:           00000AH   BYTE   UNIT     EDATA          ?ED?OLED_PRINT_CHINESE_SPI?SEEKFREE_OLED
   *DEL*:           000070H   BYTE   INSEG    CODE           ?PR?CCD_SEND_DATA?SEEKFREE_TSL1401
L251 LINKER/LOCATER V4.66.93.0                                                        04/10/2023  09:21:47  PAGE 9


   *DEL*:           000016H   BYTE   INSEG    CODE           ?PR?CCD_INIT?SEEKFREE_TSL1401
   *DEL*:           000035H   BYTE   INSEG    CODE           ?PR?CCD_COLLECT?SEEKFREE_TSL1401
   *DEL*:           000003H   BYTE   UNIT     EDATA          ?ED?CCD_SEND_DATA?SEEKFREE_TSL1401
   *DEL*:           00003AH   BYTE   INSEG    CODE           ?PR?CRC_CHECK?SEEKFREE_VIRSCO
   *DEL*:           000069H   BYTE   INSEG    CODE           ?PR?DATA_CONVERSION?SEEKFREE_VIRSCO
   *DEL*:           000004H   BYTE   UNIT     EDATA          ?ED?DATA_CONVERSION?SEEKFREE_VIRSCO
   *DEL*:           00005DH   BYTE   INSEG    CODE           ?PR?SEEKFREE_WIRELESS_SEND_BUFF?SEEKFREE_WIRELESS
   *DEL*:           00001FH   BYTE   INSEG    CODE           ?PR?SEEKFREE_WIRELESS_INIT?SEEKFREE_WIRELESS
   *DEL*:           000002H   BYTE   UNIT     EDATA          ?ED?SEEKFREE_WIRELESS_SEND_BUFF?SEEKFREE_WIRELESS
   *DEL*:           000034H   BYTE   INSEG    CODE           ?PR?CHA_BI_HE?FUNCTION
   *DEL*:           000030H   BYTE   INSEG    CODE           ?PR?FILTER?FUNCTION
   *DEL*:           0000D7H   BYTE   INSEG    CODE           ?PR?PID_REALIZE?FUNCTION
   *DEL*:           00006AH   BYTE   INSEG    CODE           ?PR?TURN_OUT_FILTER?FUNCTION
   *DEL*:           000028H   BYTE   INSEG    CODE           ?PR?CUBIC_FUNCTION?FUNCTION
   *DEL*:           00000EH   BYTE   INSEG    CODE           ?PR?MYABS?FUNCTION
   *DEL*:           000015H   BYTE   INSEG    CODE           ?PR?LIMIT?FUNCTION
   *DEL*:           00004BH   BYTE   INSEG    CODE           ?PR?WEIGHTS_OF_FILTER?FUNCTION
   *DEL*:           00008FH   BYTE   INSEG    CODE           ?PR?PID_INCREASE?FUNCTION
   *DEL*:           000017H   BYTE   INSEG    CODE           ?PR?RANGE_PROTECT?FUNCTION
   *DEL*:           000010H   BYTE   UNIT     EDATA          ?ED?PID_REALIZE?FUNCTION
   *DEL*:           000008H   BYTE   UNIT     EDATA          ?ED?PID_INCREASE?FUNCTION
   *DEL*:           000004H   BYTE   UNIT     EDATA          ?ED?RANGE_PROTECT?FUNCTION
   *DEL*:           000008H   BYTE   UNIT     EDATA          ?ED?WEIGHTS_OF_FILTER?FUNCTION
   *DEL*:           000006H   BYTE   UNIT     EDATA          ?ED?CHA_BI_HE?FUNCTION
   *DEL*:           000004H   BYTE   UNIT     EDATA          ?ED?CUBIC_FUNCTION?FUNCTION
   *DEL*:           0000B8H   BYTE   INSEG    CODE           ?PR?SPEED_P_I_CONTROL?SPEED
   *DEL*:           00002FH   BYTE   INSEG    CODE           ?PR?PROTECT_ANTICOLLISION?DIRECTION
   *DEL*:           000081H   BYTE   INSEG    CODE           ?PR?ADC_MAX_COLLECT?DIRECTION
   *DEL*:           000088H   BYTE   INSEG    CODE           ?PR?NORMALIZE_DATE?DIRECTION
   *DEL*:           00000AH   BYTE   UNIT     EDATA          ?ED?NORMALIZE_DATE?DIRECTION
   *DEL*:           00009FH   BYTE   INSEG    CODE           ?PR?TEST_SERVO_HARDWARE?DEBUG
   *DEL*:           000089H   BYTE   INSEG    CODE           ?PR?TEST_MOTOR_HARDWARE?DEBUG
   *DEL*:           00016DH   BYTE   INSEG    CODE           ?PR?TEST_ELECTRIC_HARDWARE?DEBUG
   *DEL*:           00003BH   BYTE   INSEG    CODE           ?PR?DATASEND?DEBUG
   *DEL*:           000267H   BYTE   INSEG    CODE           ?PR?KEY_SCAN_DEAL?DEBUG
   *DEL*:           00000CH   BYTE   UNIT     EDATA          ?ED?DATASEND?DEBUG
   *DEL*:           000010H   BYTE   UNIT     EDATA          ?ED?TEST_SERVO_HARDWARE?DEBUG
   *DEL*:           000010H   BYTE   UNIT     EDATA          ?ED?TEST_ELECTRIC_HARDWARE?DEBUG
   *DEL*:           000025H   BYTE   INSEG    CODE           ?PR?MEMCPY?_?MEMCPY



OVERLAY MAP OF MODULE:   .\Out_File\SEEKFREE (board)


FUNCTION/MODULE                               EDATA_GROUP
--> CALLED FUNCTION/MODULE                    START  STOP
=========================================================
UART1_Isr/isr                                 ----- -----

*** NEW ROOT ********************************

UART2_Isr/isr                                 ----- -----

*** NEW ROOT ********************************

UART3_Isr/isr                                 ----- -----

*** NEW ROOT ********************************

UART4_Isr/isr                                 ----- -----
  +--> wireless_uart_callback/SEEKFREE_WIRELESS

wireless_uart_callback/SEEKFREE_WIRELESS      ----- -----

L251 LINKER/LOCATER V4.66.93.0                                                        04/10/2023  09:21:47  PAGE 10


*** NEW ROOT ********************************

INT0_Isr/isr                                  ----- -----

*** NEW ROOT ********************************

INT1_Isr/isr                                  ----- -----

*** NEW ROOT ********************************

INT2_Isr/isr                                  ----- -----

*** NEW ROOT ********************************

INT3_Isr/isr                                  ----- -----

*** NEW ROOT ********************************

INT4_Isr/isr                                  ----- -----

*** NEW ROOT ********************************

TM0_Isr/isr                                   ----- -----

*** NEW ROOT ********************************

TM1_Isr/isr                                   ----- -----
  +--> speed_measure/speed
  +--> Fuse_result/fuse

speed_measure/speed                           ----- -----
  +--> ctimer_count_read/zf_tim
  +--> ctimer_count_clean/zf_tim
  +--> FCASTI/DFPMU_SP
  +--> FPMUL/DFPMU_SP
  +--> FCASTL/DFPMU_SP
  +--> FPADD/DFPMU_SP
  +--> CASTF/DFPMU_SP

ctimer_count_read/zf_tim                      ----- -----

ctimer_count_clean/zf_tim                     ----- -----

FCASTI/DFPMU_SP                               ----- -----

FPMUL/DFPMU_SP                                ----- -----

FCASTL/DFPMU_SP                               ----- -----

FPADD/DFPMU_SP                                ----- -----

CASTF/DFPMU_SP                                ----- -----

Fuse_result/fuse                              ----- -----
  +--> go_motor/speed
  +--> Electromagnetism_Control/DirectioN
  +--> Cha_BI_He_Sqrt/Function
  +--> FPADD/DFPMU_SP
  +--> CASTF/DFPMU_SP
  +--> PlacePID_Control/Function
  +--> Steering_Control_Out/DirectioN

go_motor/speed                                ----- -----
  +--> pwm_duty/zf_pwm

L251 LINKER/LOCATER V4.66.93.0                                                        04/10/2023  09:21:47  PAGE 11


pwm_duty/zf_pwm                               ----- -----
  +--> FCASTL/DFPMU_SP
  +--> FPDIV/DFPMU_SP
  +--> FPMUL/DFPMU_SP
  +--> CASTF/DFPMU_SP

FPDIV/DFPMU_SP                                ----- -----

Electromagnetism_Control/DirectioN            ----- -----
  +--> AD_Date_Fitier/DirectioN
  +--> Annulus_Analysis/DirectioN
  +--> Sanc_Cha_Kou_Analysis/DirectioN

AD_Date_Fitier/DirectioN                      0287H 02B8H
  +--> adc_mean_filter/zf_adc
  +--> I_Median_Average_Filter/Function

adc_mean_filter/zf_adc                        02B9H 02BEH
  +--> adc_once/zf_adc
  +--> ?C?ULIDIV/?C?ULDIV

adc_once/zf_adc                               ----- -----

?C?ULIDIV/?C?ULDIV                            ----- -----

I_Median_Average_Filter/Function              ----- -----

Annulus_Analysis/DirectioN                    ----- -----
  +--> go_motor/speed

Sanc_Cha_Kou_Analysis/DirectioN               ----- -----
  +--> go_motor/speed

Cha_BI_He_Sqrt/Function                       0287H 028AH
  +--> FCASTI/DFPMU_SP
  +--> SQRT/DFPMU_SP
  +--> FPMUL/DFPMU_SP
  +--> FPDIV/DFPMU_SP

SQRT/DFPMU_SP                                 ----- -----

PlacePID_Control/Function                     0287H 028EH
  +--> FCASTL/DFPMU_SP
  +--> FPMUL/DFPMU_SP
  +--> FPADD/DFPMU_SP
  +--> FPCMP/DFPMU_SP
  +--> FCHS/DFPMU_SP
  +--> FPDIV/DFPMU_SP
  +--> FPSUB/DFPMU_SP
  +--> CASTF/DFPMU_SP

FPCMP/DFPMU_SP                                ----- -----

FCHS/DFPMU_SP                                 ----- -----

FPSUB/DFPMU_SP                                ----- -----

Steering_Control_Out/DirectioN                ----- -----
  +--> pwm_duty/zf_pwm

*** NEW ROOT ********************************

TM2_Isr/isr                                   ----- -----

*** NEW ROOT ********************************
L251 LINKER/LOCATER V4.66.93.0                                                        04/10/2023  09:21:47  PAGE 12



TM3_Isr/isr                                   ----- -----

*** NEW ROOT ********************************

TM4_Isr/isr                                   ----- -----

*** NEW ROOT ********************************

?C_C51STARTUP                                 ----- -----

*** NEW ROOT ********************************

?C_C51STARTUP?3                               ----- -----
  +--> main/main

main/main                                     02BFH 02D2H
  +--> initialize/main
  +--> lcd_showstr/SEEKFREE_18TFT
  +--> SPRINTF/SPRINTF
  +--> OutInGarage/NewOther
  +--> STOP_Analyse/NewOther

initialize/main                               ----- -----
  +--> DisableGlobalIRQ/board
  +--> board_init/board
  +--> soft_delay/Function
  +--> lcd_init/SEEKFREE_18TFT
  +--> lcd_showstr/SEEKFREE_18TFT
  +--> delay_ms/zf_delay
  +--> Flag_Init/fuse
  +--> Switch_Key_init/debug
  +--> Strategy_Slect/debug
  +--> gpio_mode/zf_gpio
  +--> init_PWM/speed
  +--> encoder_init/speed
  +--> init_Steer_PWM/DirectioN
  +--> ADC_Int/DirectioN
  +--> PID_Parameter_Init/Function
  +--> uart_init/zf_uart
  +--> BUZZ_DiDiDi/debug
  +--> exit_init/zf_exti
  +--> pit_timer_ms/zf_tim
  +--> EnableGlobalIRQ/board

DisableGlobalIRQ/board                        ----- -----

board_init/board                              ----- -----
  +--> set_clk/board
  +--> delay_init/zf_delay
  +--> uart_init/zf_uart

set_clk/board                                 ----- -----

delay_init/zf_delay                           ----- -----
  +--> ?C?SLDIV/?C?SLDIV

?C?SLDIV/?C?SLDIV                             ----- -----
  +--> ?C?ULIDIV/?C?ULDIV

uart_init/zf_uart                             02D3H 02D8H
  +--> ?C?ULIDIV/?C?ULDIV

soft_delay/Function                           ----- -----

L251 LINKER/LOCATER V4.66.93.0                                                        04/10/2023  09:21:47  PAGE 13


lcd_init/SEEKFREE_18TFT                       ----- -----
  +--> spi_init/zf_spi
  +--> delay_ms/zf_delay
  +--> lcd_writeIndex/SEEKFREE_18TFT
  +--> lcd_writeData/SEEKFREE_18TFT
  +--> lcd_clear/SEEKFREE_18TFT

spi_init/zf_spi                               02D3H 02D6H
  +--> gpio_mode/zf_gpio

gpio_mode/zf_gpio                             ----- -----

delay_ms/zf_delay                             ----- -----

lcd_writeIndex/SEEKFREE_18TFT                 ----- -----
  +--> spi_mosi/zf_spi

spi_mosi/zf_spi                               ----- -----

lcd_writeData/SEEKFREE_18TFT                  ----- -----
  +--> spi_mosi/zf_spi

lcd_clear/SEEKFREE_18TFT                      ----- -----
  +--> lcd_set_region/SEEKFREE_18TFT
  +--> lcd_writedata_16bit/SEEKFREE_18TFT

lcd_set_region/SEEKFREE_18TFT                 02DDH 02E0H
  +--> lcd_writeIndex/SEEKFREE_18TFT
  +--> lcd_writeData/SEEKFREE_18TFT

lcd_writedata_16bit/SEEKFREE_18TFT            02DDH 02DEH
  +--> spi_mosi/zf_spi

lcd_showstr/SEEKFREE_18TFT                    02D3H 02D8H
  +--> lcd_showchar/SEEKFREE_18TFT

lcd_showchar/SEEKFREE_18TFT                   02D9H 02DCH
  +--> lcd_set_region/SEEKFREE_18TFT
  +--> lcd_writedata_16bit/SEEKFREE_18TFT

Flag_Init/fuse                                ----- -----

Switch_Key_init/debug                         ----- -----
  +--> gpio_pull_set/zf_gpio

gpio_pull_set/zf_gpio                         ----- -----

Strategy_Slect/debug                          ----- -----

init_PWM/speed                                ----- -----
  +--> pwm_init/zf_pwm
  +--> gpio_mode/zf_gpio

pwm_init/zf_pwm                               02D3H 02DAH
  +--> pwm_set_gpio/zf_pwm
  +--> ?C?ULIDIV/?C?ULDIV
  +--> FCASTL/DFPMU_SP
  +--> FPDIV/DFPMU_SP
  +--> FPMUL/DFPMU_SP
  +--> CASTF/DFPMU_SP

pwm_set_gpio/zf_pwm                           ----- -----
  +--> gpio_mode/zf_gpio

encoder_init/speed                            ----- -----
L251 LINKER/LOCATER V4.66.93.0                                                        04/10/2023  09:21:47  PAGE 14


  +--> ctimer_count_init/zf_tim

ctimer_count_init/zf_tim                      ----- -----

init_Steer_PWM/DirectioN                      ----- -----
  +--> pwm_init/zf_pwm

ADC_Int/DirectioN                             ----- -----
  +--> adc_init/zf_adc

adc_init/zf_adc                               ----- -----

PID_Parameter_Init/Function                   ----- -----

BUZZ_DiDiDi/debug                             ----- -----
  +--> delay_ms/zf_delay

exit_init/zf_exti                             ----- -----

pit_timer_ms/zf_tim                           ----- -----
  +--> ?C?SLDIV/?C?SLDIV

EnableGlobalIRQ/board                         ----- -----

SPRINTF/SPRINTF                               02D3H 02FAH
  +--> OUT/SPRINTF

OUT/SPRINTF                                   ----- -----
  +--> PUTCH/SPRINTF

PUTCH/SPRINTF                                 ----- -----

OutInGarage/NewOther                          ----- -----
  +--> pwm_duty/zf_pwm
  +--> go_motor/speed
  +--> delay_ms/zf_delay
  +--> DisableGlobalIRQ/board

STOP_Analyse/NewOther                         ----- -----
  +--> OutInGarage/NewOther

*** NEW ROOT ********************************

?C_C51STARTUP?2                               ----- -----



PUBLIC SYMBOLS OF MODULE:  .\Out_File\SEEKFREE (board)


      VALUE       CLASS    TYPE      PUBLIC SYMBOL NAME
      =================================================
      00FF154FH   CODE     ---       ?C?BMOVENP
      00FF154DH   CODE     ---       ?C?BMOVENP8
      00FF007DH   CODE     ---       ?C?CASTF
      000000FFH   NUMBER   ---       ?C?CODESEG
*DEL*:00000000H   CODE     ---       ?C?FCASTC
      00FF3AD8H   CODE     ---       ?C?FCASTI
      00FF0056H   CODE     ---       ?C?FCASTL
      00FF0006H   CODE     ---       ?C?FPADD
      00FF0046H   CODE     ---       ?C?FPCMP3
      00FF1318H   CODE     ---       ?C?FPCONVERT
      00FF001EH   CODE     ---       ?C?FPDIV
      00FF0016H   CODE     ---       ?C?FPMUL
      00FF3AD1H   CODE     ---       ?C?FPNEG
L251 LINKER/LOCATER V4.66.93.0                                                        04/10/2023  09:21:47  PAGE 15


      00FF13D0H   CODE     ---       ?C?FPROUND
      00FF000EH   CODE     ---       ?C?FPSUB
      00FF1443H   CODE     ---       ?C?FTNPWR
      00FF37ABH   CODE     ---       ?C?INITEDATA
      00FF3D0AH   HCONST   WORD      ?C?INITEDATA_END
      00FF14BDH   CODE     ---       ?C?LIMUL
      00FF14ACH   CODE     ---       ?C?LMUL
      00FF0EFBH   CODE     ---       ?C?PRNFMT
      00FF147AH   CODE     ---       ?C?SIDIV
      00FF1519H   CODE     NEAR LAB  ?C?SLDIV
      00FF0000H   CODE     ---       ?C?STARTUP
      00FF14C8H   CODE     NEAR LAB  ?C?ULDIV
      00FF14C6H   CODE     NEAR LAB  ?C?ULIDIV
      00000001H   NUMBER   ---       ?C?XDATASEG
      00FF0000H   CODE     ---       ?C_STARTUP
*DEL*:1FFFFFF8H   EDATA    BYTE      ?Cha_BI_He?BYTE
*DEL*:1FFFFFFAH   EDATA    BYTE      ?Cubic_Function?BYTE
*DEL*:1FFFFFF8H   EDATA    ---       ?data_conversion?BYTE
*DEL*:1FFFFFFAH   EDATA    ---       ?iic_init?BYTE
*DEL*:1FFFFFFCH   EDATA    BYTE      ?ips114_showfloat?BYTE
*DEL*:1FFFFFFCH   EDATA    BYTE      ?ips114_showfloat_simspi?BYTE
*DEL*:1FFFFFFCH   EDATA    BYTE      ?lcd_showfloat?BYTE
*DEL*:1FFFFFFCH   EDATA    BYTE      ?lcd_showfloat_simspi?BYTE
*DEL*:1FFFFFF7H   EDATA    ---       ?number_conversion_ascii?BYTE
*DEL*:1FFFFFFCH   EDATA    BYTE      ?oled_printf_float?BYTE
*DEL*:1FFFFFFCH   EDATA    BYTE      ?oled_printf_float_spi?BYTE
*DEL*:1FFFFFF8H   EDATA    BYTE      ?PID_Increase?BYTE
*DEL*:1FFFFFFCH   EDATA    BYTE      ?PID_Realize?BYTE
      0000027FH   EDATA    BYTE      ?PlacePID_Control?BYTE
*DEL*:1FFFFFFAH   EDATA    ---       ?pwm_freq?BYTE
      000002D1H   EDATA    ---       ?pwm_init?BYTE
*DEL*:1FFFFFF8H   EDATA    BYTE      ?range_protect?BYTE
      000002CAH   EDATA    ---       ?spi_init?BYTE
      000002FBH   EDATA    ---       ?sprintf?BYTE
      000002CDH   EDATA    BYTE      ?uart_init?BYTE
*DEL*:1FFFFFF8H   EDATA    BYTE      ?Weights_Of_Filter?BYTE
*DEL*:00000028H   EDATA    ---       ?zf_sprintf?BYTE
*SFR* 000000E0H   DATA     BYTE      ACC
      00FF2CEBH   CODE     ---       AD_Date_Fitier
*SFR* 000000DCH   DATA     BYTE      ADC_CONTR
      0000035BH   EDATA    ---       adc_date
      0000038BH   EDATA    INT       adc_deviation
      00FF349FH   CODE     ---       adc_init
      00FF38F2H   CODE     ---       ADC_Int
      00000381H   EDATA    ---       adc_max
*DEL*:00000000H   CODE     ---       ADC_MAX_Collect
      00FF3683H   CODE     ---       adc_mean_filter
      00000377H   EDATA    ---       adc_min
      00FF38C4H   CODE     ---       adc_once
*SFR* 000000DDH   DATA     BYTE      ADC_RES
*SFR* 000000DEH   DATA     BYTE      ADC_RESL
*SFR* 000000DFH   DATA     BYTE      ADCCFG
      0000030AH   EDATA    INT       aim_speed
      00000323H   EDATA    INT       All_PWM_left
      0000031BH   EDATA    INT       All_PWM_right
      00FF1EEEH   CODE     ---       Annulus_Analysis
      0000039AH   EDATA    LONG      Annulus_Distance
      00000390H   EDATA    WORD      Annulus_Distance_Limit
      00000352H   EDATA    BYTE      annulus_flag
      00000392H   EDATA    BYTE      annulus_success
*DEL*:00000000H   CODE     ---       ATAN?_
*SFR* 000000DAH   DATA     BYTE      AUXINTIF
*SFR* 00000093H   DATA     BYTE      AUXR
      00FF310DH   CODE     ---       board_init
      000001D1H   EDATA    ---       busy
L251 LINKER/LOCATER V4.66.93.0                                                        04/10/2023  09:21:47  PAGE 16


      00FF3AC9H   CODE     ---       BUZZ_DiDiDi
*DEL*:00000000H   CODE     ---       ccd_collect
      00000009H   EDATA    ---       ccd_data
*DEL*:00000000H   CODE     ---       ccd_init
*DEL*:00000000H   CODE     ---       ccd_send_data
*DEL*:00000000H   CODE     ---       Cha_BI_He
      00FF36CCH   CODE     ---       Cha_BI_He_Sqrt
      00000353H   EDATA    LONG      corner
      00000375H   EDATA    WORD      Corner_Limit
*DEL*:00000000H   CODE     ---       COS?_
*DEL*:00000000H   CODE     ---       CRC_CHECK
      00FF34FDH   CODE     ---       ctimer_count_clean
      00FF3639H   CODE     ---       ctimer_count_init
      00FF35ECH   CODE     ---       ctimer_count_read
*DEL*:00000000H   CODE     ---       Cubic_Function
*DEL*:00000000H   CODE     ---       data_conversion
*DEL*:00000000H   CODE     ---       Data_Send
*DEL*:00000000H   CODE     ---       datasend
      00FF3852H   CODE     ---       delay_init
      00FF0066H   CODE     ---       delay_ms
*DEL*:00000000H   CODE     ---       delay_us
      0000036FH   EDATA    ---       Dianci
      00000395H   EDATA    BYTE      Direction_Annulus
      000001D6H   EDATA    ---       DirectVel_Pid
      00000247H   EDATA    ---       DirectVelPID
      00FF0086H   CODE     ---       DisableGlobalIRQ
      00000316H   EDATA    LONG      distance
*SFR* 0000008FH   DATA     BYTE      DMAIR
*SFR* 00000083H   DATA     BYTE      DPH
*SFR* 00000082H   DATA     BYTE      DPL
*SFR* 000000A8H.7 DATA     BIT       EA
      00FF3A98H   CODE     ---       Electromagnetism_Control
      00FF005EH   CODE     ---       EnableGlobalIRQ
*DEL*:00000000H   CODE     ---       encoder_angle_simspi
*DEL*:00000000H   CODE     ---       encoder_angle_spi
*DEL*:00000000H   CODE     ---       encoder_delay_us
      00FF3A65H   CODE     ---       encoder_init
*DEL*:00000000H   CODE     ---       encoder_init_simspi
*DEL*:00000000H   CODE     ---       encoder_init_spi
*DEL*:00000000H   CODE     ---       encoder_self4_check
*DEL*:00000000H   CODE     ---       encoder_self5_check
*DEL*:00000000H   CODE     ---       encoder_simspi_r_reg_byte
*DEL*:00000000H   CODE     ---       encoder_simspi_w_reg_byte
*DEL*:00000000H   CODE     ---       encoder_spi_r_reg_byte
*DEL*:00000000H   CODE     ---       encoder_spi_w_reg_byte
*SFR* 000000A8H.4 DATA     BIT       ES
*SFR* 000000A8H.1 DATA     BIT       ET0
*SFR* 000000A8H.3 DATA     BIT       ET1
*SFR* 000000A8H.0 DATA     BIT       EX0
*SFR* 000000A8H.2 DATA     BIT       EX1
      00FF37D7H   CODE     ---       exit_init
      00FF3D0CH   HCONST   ---       F14x16
      00FF3E5CH   HCONST   ---       F14x16_Idx
*DEL*:00000000H   CODE     ---       FABS?_
*DEL*:00000000H   CODE     ---       FCLEX
*DEL*:00000000H   CODE     ---       filter
*DEL*:00000000H   CODE     ---       FINIT
      000003DDH   EDATA    ---       Flag
      00FF3A34H   CODE     ---       Flag_Init
*DEL*:00000000H   CODE     ---       FPCRR
*DEL*:00000000H   CODE     ---       FPCRW
*DEL*:00000000H   CODE     ---       FPSRR
*DEL*:00000000H   CODE     ---       FPSRW
      00FF2C1CH   CODE     ---       Fuse_result
*DEL*:00000000H   CODE     ---       FXAM
L251 LINKER/LOCATER V4.66.93.0                                                        04/10/2023  09:21:47  PAGE 17


*DEL*:00000000H   CODE     ---       get_clk
*DEL*:00000000H   CODE     ---       get_icm20602_accdata_simiic
*DEL*:00000000H   CODE     ---       get_icm20602_accdata_simspi
*DEL*:00000000H   CODE     ---       get_icm20602_gyro_simiic
*DEL*:00000000H   CODE     ---       get_icm20602_gyro_simspi
      00FF2913H   CODE     ---       go_motor
      000003B1H   EDATA    BYTE      gogo
      00FF1572H   CODE     ---       gpio_mode
      00FF33C3H   CODE     ---       gpio_pull_set
      0000030CH   EDATA    FLOAT     I_Calculate
      00FF388BH   CODE     ---       I_Median_Average_Filter
*SFR* 000000C7H   DATA     BYTE      IAP_CONTR
*DEL*:00000000H   CODE     ---       icm20602_init_simiic
*DEL*:00000000H   CODE     ---       icm20602_init_simspi
*DEL*:00000000H   CODE     ---       icm20602_self1_check
*DEL*:00000000H   CODE     ---       icm20602_self4_check
      000003B8H   EDATA    INT       icm_acc_x
      000003BAH   EDATA    INT       icm_acc_y
      000003BCH   EDATA    INT       icm_acc_z
      000003BEH   EDATA    INT       icm_gyro_x
      000003C0H   EDATA    INT       icm_gyro_y
      000003C2H   EDATA    INT       icm_gyro_z
*DEL*:00000000H   CODE     ---       icm_simspi_r_reg_byte
*DEL*:00000000H   CODE     ---       icm_simspi_r_reg_bytes
*DEL*:00000000H   CODE     ---       icm_simspi_w_reg_byte
*DEL*:00000000H   CODE     ---       icm_simspi_wr_byte
*SFR* 000000A8H   DATA     BYTE      IE
*SFR* 000000E7H   DATA     BYTE      IE2
      000003EDH   EDATA    BYTE      IIC_ad_main
      000003EFH   EDATA    BYTE      IIC_ad_sub
      000003F0H   EDATA    ---       IIC_buf
*DEL*:00000000H   CODE     ---       iic_change_pin
*DEL*:00000000H   CODE     ---       iic_delay_us
*DEL*:00000000H   CODE     ---       iic_init
      000003EEH   EDATA    BYTE      IIC_num
*DEL*:00000000H   CODE     ---       iic_read_reg
*DEL*:00000000H   CODE     ---       iic_read_reg_bytes
*DEL*:00000000H   CODE     ---       iic_write_reg
      00FF32BAH   CODE     ---       init_PWM
      00FF3A52H   CODE     ---       init_Steer_PWM
      00FF2FD6H   CODE     ---       initialize
      00FF3997H   CODE     ---       INT0_Isr
      00FF000AH   CODE     ---       INT1_Isr
      00FF3AA1H   CODE     ---       INT2_Isr
      00FF39B9H   CODE     ---       INT3_Isr
      00FF3AA9H   CODE     ---       INT4_Isr
      000003E6H   EDATA    BYTE      INT_Flag
      000003DCH   EDATA    BYTE      int_OK
*SFR* 00000095H   DATA     BYTE      INTCLKO
*SFR* 000000B8H   DATA     BYTE      IP
*SFR* 000000FEH   DATA     BYTE      IP2
*SFR* 000000B6H   DATA     BYTE      IP2H
*SFR* 000000B7H   DATA     BYTE      IPH
*DEL*:00000000H   CODE     ---       ips114_clear
*DEL*:00000000H   CODE     ---       ips114_clear_simspi
*DEL*:00000000H   CODE     ---       ips114_drawpoint
*DEL*:00000000H   CODE     ---       ips114_drawpoint_simspi
*DEL*:00000000H   CODE     ---       ips114_init
*DEL*:00000000H   CODE     ---       ips114_init_simspi
*DEL*:00000000H   CODE     ---       ips114_set_region
*DEL*:00000000H   CODE     ---       ips114_set_region_simspi
*DEL*:00000000H   CODE     ---       ips114_showchar
*DEL*:00000000H   CODE     ---       ips114_showchar_simspi
*DEL*:00000000H   CODE     ---       ips114_showfloat
*DEL*:00000000H   CODE     ---       ips114_showfloat_simspi
L251 LINKER/LOCATER V4.66.93.0                                                        04/10/2023  09:21:47  PAGE 18


*DEL*:00000000H   CODE     ---       ips114_showint16
*DEL*:00000000H   CODE     ---       ips114_showint16_simspi
*DEL*:00000000H   CODE     ---       ips114_showint32
*DEL*:00000000H   CODE     ---       ips114_showint32_simspi
*DEL*:00000000H   CODE     ---       ips114_showint8
*DEL*:00000000H   CODE     ---       ips114_showint8_simspi
*DEL*:00000000H   CODE     ---       ips114_showstr
*DEL*:00000000H   CODE     ---       ips114_showstr_simspi
*DEL*:00000000H   CODE     ---       ips114_showuint16
*DEL*:00000000H   CODE     ---       ips114_showuint16_simspi
*DEL*:00000000H   CODE     ---       ips114_showuint8
*DEL*:00000000H   CODE     ---       ips114_showuint8_simspi
*DEL*:00000000H   CODE     ---       ips114_writeData
*DEL*:00000000H   CODE     ---       ips114_writedata_16bit
*DEL*:00000000H   CODE     ---       ips114_writeData_simspi
*DEL*:00000000H   CODE     ---       ips114_writeDatai_16bit_simspi
*DEL*:00000000H   CODE     ---       ips114_writeIndex
*DEL*:00000000H   CODE     ---       ips114_writeIndex_simspi
*SFR* 000000A9H   DATA     BYTE      IRCBAND
*SFR* 0000009FH   DATA     BYTE      IRTRIM
*SFR* 00000088H.0 DATA     BIT       IT0
*SFR* 00000088H.2 DATA     BIT       IT1
      000003B3H   EDATA    BYTE      key1_flag
      000003A5H   EDATA    BYTE      key1_last_status
      0000039FH   EDATA    BYTE      key1_status
      000003B4H   EDATA    BYTE      key2_flag
      000003A6H   EDATA    BYTE      key2_last_status
      000003A0H   EDATA    BYTE      key2_status
      000003B5H   EDATA    BYTE      key3_flag
      000003A7H   EDATA    BYTE      key3_last_status
      000003A1H   EDATA    BYTE      key3_status
      000003B6H   EDATA    BYTE      key4_flag
      000003A8H   EDATA    BYTE      key4_last_status
      000003A2H   EDATA    BYTE      key4_status
      000003B7H   EDATA    BYTE      key5_flag
      000003A9H   EDATA    BYTE      key5_last_status
      000003A3H   EDATA    BYTE      key5_status
*DEL*:00000000H   CODE     ---       Key_Scan_Deal
      00000301H   EDATA    INT       Last_left_speed
      000002FDH   EDATA    INT       Last_right_speed
      00000308H   EDATA    INT       last_speed
      00FF391FH   CODE     ---       lcd_clear
*DEL*:00000000H   CODE     ---       lcd_clear_simspi
*DEL*:00000000H   CODE     ---       lcd_drawpoint
*DEL*:00000000H   CODE     ---       lcd_drawpoint_simspi
      00FF22EDH   CODE     ---       lcd_init
*DEL*:00000000H   CODE     ---       lcd_init_simspi
      00FF354EH   CODE     ---       lcd_set_region
*DEL*:00000000H   CODE     ---       lcd_set_region_simspi
      00FF322CH   CODE     ---       lcd_showchar
*DEL*:00000000H   CODE     ---       lcd_showchar_simspi
*DEL*:00000000H   CODE     ---       lcd_showfloat
*DEL*:00000000H   CODE     ---       lcd_showfloat_simspi
*DEL*:00000000H   CODE     ---       lcd_showint16
*DEL*:00000000H   CODE     ---       lcd_showint16_simspi
*DEL*:00000000H   CODE     ---       lcd_showint32
*DEL*:00000000H   CODE     ---       lcd_showint32_simspi
*DEL*:00000000H   CODE     ---       lcd_showint8
*DEL*:00000000H   CODE     ---       lcd_showint8_simspi
      00FF359EH   CODE     ---       lcd_showstr
*DEL*:00000000H   CODE     ---       lcd_showstr_simspi
*DEL*:00000000H   CODE     ---       lcd_showuint16
*DEL*:00000000H   CODE     ---       lcd_showuint16_simspi
*DEL*:00000000H   CODE     ---       lcd_showuint8
*DEL*:00000000H   CODE     ---       lcd_showuint8_simspi
L251 LINKER/LOCATER V4.66.93.0                                                        04/10/2023  09:21:47  PAGE 19


      00FF3A8EH   CODE     ---       lcd_writeData
      00FF39D9H   CODE     ---       lcd_writedata_16bit
*DEL*:00000000H   CODE     ---       lcd_writeData_16bit_simspi
*DEL*:00000000H   CODE     ---       lcd_writeData_simspi
      00FF3A84H   CODE     ---       lcd_writeIndex
*DEL*:00000000H   CODE     ---       lcd_writeIndex_simspi
      00000398H   EDATA    INT       Left_Adc
      0000038DH   EDATA    BYTE      Left_Annulus
      000003E5H   EDATA    BYTE      LEFT_RIGHT
      00000306H   EDATA    INT       left_speed
      0000034EH   EDATA    INT       Left_Xie_Adc
      0000038EH   EDATA    WORD      leftleft
*DEL*:00000000H   CODE     ---       limit
*SFR* 0000009EH   DATA     BYTE      LIRTRIM
      00FF27E9H   CODE     ---       main
*DEL*:00000000H   CODE     ---       memcpy?_
      00000350H   EDATA    INT       Mid_Adc
      00000303H   EDATA    BYTE      MOTOR_MODE
*DEL*:00000000H   CODE     ---       mpu6050_get_accdata
*DEL*:00000000H   CODE     ---       mpu6050_get_gyro
*DEL*:00000000H   CODE     ---       mpu6050_init
*DEL*:00000000H   CODE     ---       mpu6050_self1_check
      000003C4H   EDATA    INT       mpu_acc_x
      000003C6H   EDATA    INT       mpu_acc_y
      000003C8H   EDATA    INT       mpu_acc_z
      000003CAH   EDATA    INT       mpu_gyro_x
      000003CCH   EDATA    INT       mpu_gyro_y
      000003CEH   EDATA    INT       mpu_gyro_z
*DEL*:00000000H   CODE     ---       myabs
*DEL*:00000000H   CODE     ---       normalize_date
*DEL*:00000000H   CODE     ---       number_conversion_ascii
*DEL*:00000000H   CODE     ---       NVIC_SetPriority
      00FF0C86H   CODE     ---       oled_6x8
      00FF00A6H   CODE     ---       oled_8x16
*DEL*:00000000H   CODE     ---       oled_clrpixel
*DEL*:00000000H   CODE     ---       oled_clrpixel_spi
*DEL*:00000000H   CODE     ---       oled_dis_bmp
*DEL*:00000000H   CODE     ---       oled_dis_bmp_spi
*DEL*:00000000H   CODE     ---       oled_fill
*DEL*:00000000H   CODE     ---       oled_fill_spi
*DEL*:00000000H   CODE     ---       oled_hexascii
*DEL*:00000000H   CODE     ---       oled_hexascii_spi
*DEL*:00000000H   CODE     ---       oled_init
*DEL*:00000000H   CODE     ---       oled_init_spi
*DEL*:00000000H   CODE     ---       oled_int16
*DEL*:00000000H   CODE     ---       oled_int16_spi
*DEL*:00000000H   CODE     ---       OLED_P14x16Str
*DEL*:00000000H   CODE     ---       oled_p6x8str
*DEL*:00000000H   CODE     ---       oled_p6x8str_spi
*DEL*:00000000H   CODE     ---       oled_p8x16str
*DEL*:00000000H   CODE     ---       oled_p8x16str_spi
*DEL*:00000000H   CODE     ---       oled_print_chinese
*DEL*:00000000H   CODE     ---       oled_print_chinese_spi
*DEL*:00000000H   CODE     ---       oled_printf_float
*DEL*:00000000H   CODE     ---       oled_printf_float_spi
*DEL*:00000000H   CODE     ---       oled_printf_int32
*DEL*:00000000H   CODE     ---       oled_printf_int32_spi
*DEL*:00000000H   CODE     ---       oled_putpixel
*DEL*:00000000H   CODE     ---       oled_putpixel_spi
*DEL*:00000000H   CODE     ---       oled_set_pos
*DEL*:00000000H   CODE     ---       oled_set_pos_spi
*DEL*:00000000H   CODE     ---       oled_uint16
*DEL*:00000000H   CODE     ---       oled_uint16_spi
*DEL*:00000000H   CODE     ---       oled_wrcmd
*DEL*:00000000H   CODE     ---       oled_wrcmd_spi
L251 LINKER/LOCATER V4.66.93.0                                                        04/10/2023  09:21:47  PAGE 20


*DEL*:00000000H   CODE     ---       oled_wrdat
*DEL*:00000000H   CODE     ---       oled_wrdat_spi
      000003E4H   EDATA    BYTE      Only_Once
      00000365H   EDATA    WORD      Out_Time
      00FF20F5H   CODE     ---       OutInGarage
*SFR* 00000080H   DATA     BYTE      P0
*SFR* 00000080H.7 DATA     BIT       P07
*SFR* 000000F2H   DATA     BYTE      P0M0
*SFR* 000000F1H   DATA     BYTE      P0M1
*SFR* 00000090H   DATA     BYTE      P1
*SFR* 000000F4H   DATA     BYTE      P1M0
*SFR* 000000F3H   DATA     BYTE      P1M1
*SFR* 000000A0H   DATA     BYTE      P2
*SFR* 000000A0H.0 DATA     BIT       P20
*SFR* 000000A0H.1 DATA     BIT       P21
*SFR* 000000A0H.2 DATA     BIT       P22
*SFR* 000000A0H.3 DATA     BIT       P23
*SFR* 000000A0H.4 DATA     BIT       P24
*SFR* 000000A0H.5 DATA     BIT       P25
*SFR* 000000A0H.6 DATA     BIT       P26
*SFR* 000000A0H.7 DATA     BIT       P27
*SFR* 000000F6H   DATA     BYTE      P2M0
*SFR* 000000F5H   DATA     BYTE      P2M1
*SFR* 000000B0H   DATA     BYTE      P3
*SFR* 000000B0H.2 DATA     BIT       P32
*SFR* 000000B0H.3 DATA     BIT       P33
*SFR* 000000B0H.5 DATA     BIT       P35
*SFR* 000000FAH   DATA     BYTE      P3M0
*SFR* 000000F9H   DATA     BYTE      P3M1
*SFR* 000000C0H   DATA     BYTE      P4
*SFR* 000000C0H.0 DATA     BIT       P40
*SFR* 000000C0H.1 DATA     BIT       P41
*SFR* 000000C0H.2 DATA     BIT       P42
*SFR* 000000C0H.3 DATA     BIT       P43
*SFR* 000000FCH   DATA     BYTE      P4M0
*SFR* 000000FBH   DATA     BYTE      P4M1
*SFR* 000000C8H   DATA     BYTE      P5
*SFR* 000000C8H.0 DATA     BIT       P50
*SFR* 000000C8H.1 DATA     BIT       P51
*SFR* 000000C8H.2 DATA     BIT       P52
*SFR* 000000C8H.3 DATA     BIT       P53
*SFR* 000000EDH   DATA     BYTE      P5M0
*SFR* 000000ECH   DATA     BYTE      P5M1
*SFR* 000000E8H   DATA     BYTE      P6
*SFR* 000000E8H.0 DATA     BIT       P60
*SFR* 000000E8H.1 DATA     BIT       P61
*SFR* 000000E8H.2 DATA     BIT       P62
*SFR* 000000E8H.3 DATA     BIT       P63
*SFR* 000000E8H.4 DATA     BIT       P64
*SFR* 000000EFH   DATA     BYTE      P6M0
*SFR* 000000EEH   DATA     BYTE      P6M1
*SFR* 000000F8H   DATA     BYTE      P7
*SFR* 000000F8H.0 DATA     BIT       P70
*SFR* 000000F8H.1 DATA     BIT       P71
*SFR* 000000F8H.2 DATA     BIT       P72
*SFR* 000000F8H.3 DATA     BIT       P73
*SFR* 000000F8H.7 DATA     BIT       P77
*SFR* 000000D3H   DATA     BYTE      P7M0
*SFR* 000000D2H   DATA     BYTE      P7M1
      00000310H   EDATA    FLOAT     P_Calculate
*SFR* 0000009AH   DATA     BYTE      P_SW1
*SFR* 0000009BH   DATA     BYTE      P_SW2
      000003B2H   EDATA    CHAR      parameter
*DEL*:00000000H   CODE     ---       PID_Increase
      00FF3973H   CODE     ---       PID_Parameter_Init
L251 LINKER/LOCATER V4.66.93.0                                                        04/10/2023  09:21:47  PAGE 21


*DEL*:00000000H   CODE     ---       PID_Realize
      00FF3079H   CODE     ---       pit_timer_ms
      00FF2A3BH   CODE     ---       PlacePID_Control
*DEL*:00000000H   CODE     ---       printf_reverse_order
*DEL*:00000000H   CODE     ---       Protect_Anticollision
*SFR* 000000D0H   DATA     BYTE      PSW
*DEL*:00000000H   CODE     ---       putchar
      00FF4008H   HCONST   ---       PWM_ARR_ADDR
      00FF4010H   HCONST   ---       PWM_CCER_ADDR
      00FF4020H   HCONST   ---       PWM_CCMR_ADDR
      00FF3FE8H   HCONST   ---       PWM_CCR_ADDR
      00FF2E6DH   CODE     ---       pwm_duty
*DEL*:00000000H   CODE     ---       pwm_freq
      00FF1969H   CODE     ---       pwm_init
      00FF1C4DH   CODE     ---       pwm_set_gpio
*DEL*:00000000H   CODE     ---       range_protect
*DEL*:00000000H   CODE     ---       read_ch
      00000304H   EDATA    INT       real_speed
*DEL*:00000000H   CODE     ---       recv_ack
*DEL*:00000000H   CODE     ---       recv_data
      00000393H   EDATA    INT       Right_Adc
      000002FFH   EDATA    INT       right_speed
      00000396H   EDATA    INT       Right_Xie_Adc
      0000039EH   EDATA    BYTE      Round_Start
*SFR* 000000FFH   DATA     BYTE      RSTCFG
*SFR* 000000E4H   DATA     BYTE      S2BUF
*SFR* 000000E3H   DATA     BYTE      S2CON
*SFR* 000000E6H   DATA     BYTE      S3BUF
*SFR* 000000E5H   DATA     BYTE      S3CON
*SFR* 000000BDH   DATA     BYTE      S4BUF
*SFR* 000000BCH   DATA     BYTE      S4CON
      00FF269AH   CODE     ---       Sanc_Cha_Kou_Analysis
      0000036AH   EDATA    LONG      SanChakou_Length
      00000367H   EDATA    BYTE      SanChaKou_Number
      0000036EH   EDATA    BYTE      SanChaKou_Once
      00000357H   EDATA    WORD      SanChaKou_T
*SFR* 00000099H   DATA     BYTE      SBUF
*SFR* 00000098H   DATA     BYTE      SCON
*DEL*:00000000H   CODE     ---       seekfree_wireless_init
*DEL*:00000000H   CODE     ---       seekfree_wireless_send_buff
*DEL*:00000000H   CODE     ---       send_ack
*DEL*:00000000H   CODE     ---       send_ch
*DEL*:00000000H   CODE     ---       send_data
*DEL*:00000000H   CODE     ---       send_nak
      00FF2DB3H   CODE     ---       set_clk
      000002FBH   EDATA    INT       Set_Speed
*DEL*:00000000H   CODE     ---       set_zero_position_simspi
*DEL*:00000000H   CODE     ---       set_zero_position_spi
*DEL*:00000000H   CODE     ---       showimage
*DEL*:00000000H   CODE     ---       simiic_delay
*DEL*:00000000H   CODE     ---       simiic_init
*DEL*:00000000H   CODE     ---       simiic_read_reg
*DEL*:00000000H   CODE     ---       simiic_read_regs
*DEL*:00000000H   CODE     ---       simiic_sendack
*DEL*:00000000H   CODE     ---       simiic_start
*DEL*:00000000H   CODE     ---       simiic_stop
*DEL*:00000000H   CODE     ---       simiic_write_reg
*DEL*:00000000H   CODE     ---       simspi_r_reg_byte
*DEL*:00000000H   CODE     ---       simspi_w_reg_byte
*DEL*:00000000H   CODE     ---       simspi_wr_byte
*DEL*:00000000H   CODE     ---       SIN?_
      00FF0026H   CODE     ---       soft_delay
*SFR* 000000BAH   DATA     BYTE      SPCTL
*SFR* 000000BBH   DATA     BYTE      SPDAT
      00FF3340H   CODE     ---       speed_measure
L251 LINKER/LOCATER V4.66.93.0                                                        04/10/2023  09:21:47  PAGE 22


      0000031DH   EDATA    INT       Speed_Min
*DEL*:00000000H   CODE     ---       Speed_P_I_Control
      00000257H   EDATA    ---       Speed_Pid
      00000314H   EDATA    INT       Speed_PWM
      00000236H   EDATA    ---       SpeedPID
*DEL*:00000000H   CODE     ---       spi_change_mode
*DEL*:00000000H   CODE     ---       spi_change_pin
      00FF2B3DH   CODE     ---       spi_init
      00FF3A76H   CODE     ---       spi_mosi
*DEL*:00000000H   CODE     ---       spi_r_reg_byte
*DEL*:00000000H   CODE     ---       spi_w_reg_byte
*DEL*:00000000H   CODE     ---       spi_wr_byte
      00FF0EAEH   CODE     NEAR LAB  sprintf
*SFR* 000000B9H   DATA     BYTE      SPSTAT
      00FF003FH   CODE     ---       SQRT?_
*DEL*:00000000H   CODE     ---       start
      00FF394AH   CODE     ---       Steering_Control_Out
*DEL*:00000000H   CODE     ---       stop
      00FF3431H   CODE     ---       STOP_Analyse
      000003EBH   EDATA    WORD      STOP_T_Count
      00FF3758H   CODE     ---       Strategy_Slect
      000003ABH   EDATA    BYTE      Switch1
      000003ACH   EDATA    BYTE      Switch2
      000003ADH   EDATA    BYTE      Switch3
      000003AEH   EDATA    BYTE      Switch4
      000003AFH   EDATA    BYTE      Switch5
      000003B0H   EDATA    BYTE      Switch6
      00FF319DH   CODE     ---       Switch_Key_init
      000003F9H   EDATA    LONG      sys_clk
*SFR* 000000CDH   DATA     BYTE      T2H
*SFR* 000000CEH   DATA     BYTE      T2L
*SFR* 000000CBH   DATA     BYTE      T3H
*SFR* 000000CCH   DATA     BYTE      T3L
*SFR* 000000C9H   DATA     BYTE      T4H
*SFR* 000000CAH   DATA     BYTE      T4L
*SFR* 000000DBH   DATA     BYTE      T4T3M
      000003E7H   EDATA    DWORD     T_ALready
      00000368H   EDATA    WORD      T_annulus
      00000359H   EDATA    WORD      T_Clear
*DEL*:00000000H   CODE     ---       TAN?_
*SFR* 00000088H   DATA     BYTE      TCON
*DEL*:00000000H   CODE     ---       Test_Electric_Hardware
*DEL*:00000000H   CODE     ---       Test_Motor_Hardware
*DEL*:00000000H   CODE     ---       Test_Servo_Hardware
      00FF0696H   CODE     ---       tft_ascii
      000003A4H   EDATA    BYTE      TFT_SHOW
*SFR* 0000008CH   DATA     BYTE      TH0
*SFR* 0000008DH   DATA     BYTE      TH1
      000003AAH   EDATA    BYTE      TiaoCan
*SFR* 0000008AH   DATA     BYTE      TL0
*SFR* 0000008BH   DATA     BYTE      TL1
      00FF0012H   CODE     ---       TM0_Isr
      00FF2F25H   CODE     ---       TM1_Isr
      00FF3AB1H   CODE     ---       TM2_Isr
      00FF3AB9H   CODE     ---       TM3_Isr
      00FF3AC1H   CODE     ---       TM4_Isr
*SFR* 00000089H   DATA     BYTE      TMOD
*SFR* 00000088H.4 DATA     BIT       TR0
*SFR* 00000088H.6 DATA     BIT       TR1
      00000008H   EDATA    BYTE      tsl1401_finish_flag
*DEL*:00000000H   CODE     ---       Turn_Out_Filter
      000001F6H   EDATA    ---       Turn_Pid
      000003DAH   EDATA    INT       Turn_PWM
      00000246H   EDATA    BYTE      Turn_Suquence
      000001E6H   EDATA    ---       TurnPID
L251 LINKER/LOCATER V4.66.93.0                                                        04/10/2023  09:21:47  PAGE 23


      00FF3815H   CODE     ---       UART1_Isr
      00000109H   EDATA    ---       uart1_rx_buff
      0000016DH   EDATA    ---       uart1_tx_buff
      00FF39F8H   CODE     ---       UART2_Isr
      00FF3A16H   CODE     ---       UART3_Isr
      00FF3713H   CODE     ---       UART4_Isr
      00FF24DBH   CODE     ---       uart_init
*DEL*:00000000H   CODE     ---       uart_putbuff
*DEL*:00000000H   CODE     ---       uart_putchar
*DEL*:00000000H   CODE     ---       uart_putstr
      000003D0H   EDATA    ---       virtual_scope_data
*DEL*:00000000H   CODE     ---       wait
*DEL*:00000000H   CODE     ---       Weights_Of_Filter
      00FF008EH   CODE     ---       wireless_uart_callback
*SFR* 00000092H   DATA     BYTE      WTST
      000003FDH   EDATA    WORD      zf_delay_ms
      000003FFH   EDATA    WORD      zf_delay_us
*DEL*:00000000H   CODE     ---       zf_sprintf



SYMBOL TABLE OF MODULE:  .\Out_File\SEEKFREE (board)

      VALUE       REP       CLASS    TYPE      SYMBOL NAME
      ====================================================
      ---         MODULE    ---      ---       board
      00FF005EH   PUBLIC    CODE     ---       EnableGlobalIRQ
      00FF310DH   PUBLIC    CODE     ---       board_init
      00FF2DB3H   PUBLIC    CODE     ---       set_clk
      00FF0086H   PUBLIC    CODE     ---       DisableGlobalIRQ
      000003F9H   PUBLIC    EDATA    LONG      sys_clk
      000000F2H   SFRSYM    DATA     BYTE      P0M0
      000000D0H   SFRSYM    DATA     BYTE      PSW
      000000A9H   SFRSYM    DATA     BYTE      IRCBAND
      000000BCH   SFRSYM    DATA     BYTE      S4CON
      000000E5H   SFRSYM    DATA     BYTE      S3CON
      000000E3H   SFRSYM    DATA     BYTE      S2CON
      0000009FH   SFRSYM    DATA     BYTE      IRTRIM
      00000092H   SFRSYM    DATA     BYTE      WTST
      000000FFH   SFRSYM    DATA     BYTE      RSTCFG
      00000093H   SFRSYM    DATA     BYTE      AUXR
      000000E7H   SFRSYM    DATA     BYTE      IE2
      00000088H   SFRSYM    DATA     BYTE      TCON
      00000089H   SFRSYM    DATA     BYTE      TMOD
      00000098H   SFRSYM    DATA     BYTE      SCON
      0000009EH   SFRSYM    DATA     BYTE      LIRTRIM
      000000DFH   SFRSYM    DATA     BYTE      ADCCFG
      000000B8H   SFRSYM    DATA     BYTE      IP
      000000A8H   SFRSYM    DATA     BYTE      IE
      0000009BH   SFRSYM    DATA     BYTE      P_SW2
      0000009AH   SFRSYM    DATA     BYTE      P_SW1
      000000F8H   SFRSYM    DATA     BYTE      P7
      000000A8H.7 SFRSYM    DATA     BIT       EA
      000000D2H   SFRSYM    DATA     BYTE      P7M1
      000000E8H   SFRSYM    DATA     BYTE      P6
      000000C8H   SFRSYM    DATA     BYTE      P5
      000000D3H   SFRSYM    DATA     BYTE      P7M0
      000000EEH   SFRSYM    DATA     BYTE      P6M1
      000000C0H   SFRSYM    DATA     BYTE      P4
      000000ECH   SFRSYM    DATA     BYTE      P5M1
      000000EFH   SFRSYM    DATA     BYTE      P6M0
      000000B0H   SFRSYM    DATA     BYTE      P3
      000000EDH   SFRSYM    DATA     BYTE      P5M0
      000000FBH   SFRSYM    DATA     BYTE      P4M1
      000000A0H   SFRSYM    DATA     BYTE      P2
L251 LINKER/LOCATER V4.66.93.0                                                        04/10/2023  09:21:47  PAGE 24


      000000F9H   SFRSYM    DATA     BYTE      P3M1
      000000FCH   SFRSYM    DATA     BYTE      P4M0
      00000090H   SFRSYM    DATA     BYTE      P1
      000000F5H   SFRSYM    DATA     BYTE      P2M1
      000000FAH   SFRSYM    DATA     BYTE      P3M0
      00000080H   SFRSYM    DATA     BYTE      P0
      000000F3H   SFRSYM    DATA     BYTE      P1M1
      000000F6H   SFRSYM    DATA     BYTE      P2M0
      000000F1H   SFRSYM    DATA     BYTE      P0M1
      000000F4H   SFRSYM    DATA     BYTE      P1M0

      00FF2DB3H   BLOCK     CODE     ---       LVL=0
      DR8         REGSYM    ---      DWORD     clk
      00FF2DB3H   LINE      CODE     ---       #36
      00FF2DB5H   LINE      CODE     ---       #38
      00FF2DC1H   LINE      CODE     ---       #40
      00FF2DC4H   LINE      CODE     ---       #41
      00FF2DC7H   LINE      CODE     ---       #42
      00FF2DCAH   LINE      CODE     ---       #43
      00FF2DCAH   LINE      CODE     ---       #44
      00FF2DCDH   LINE      CODE     ---       #45
      00FF2DD9H   LINE      CODE     ---       #47
      00FF2DDCH   LINE      CODE     ---       #48
      00FF2DDFH   LINE      CODE     ---       #49
      00FF2DE2H   LINE      CODE     ---       #50
      00FF2DE2H   LINE      CODE     ---       #51
      00FF2DE4H   LINE      CODE     ---       #52
      00FF2DF0H   LINE      CODE     ---       #54
      00FF2DF3H   LINE      CODE     ---       #55
      00FF2DF6H   LINE      CODE     ---       #56
      00FF2DF9H   LINE      CODE     ---       #57
      00FF2DF9H   LINE      CODE     ---       #58
      00FF2DFBH   LINE      CODE     ---       #59
      00FF2E07H   LINE      CODE     ---       #61
      00FF2E0AH   LINE      CODE     ---       #62
      00FF2E0DH   LINE      CODE     ---       #63
      00FF2E10H   LINE      CODE     ---       #64
      00FF2E10H   LINE      CODE     ---       #65
      00FF2E12H   LINE      CODE     ---       #66
      00FF2E1EH   LINE      CODE     ---       #68
      00FF2E21H   LINE      CODE     ---       #69
      00FF2E24H   LINE      CODE     ---       #70
      00FF2E27H   LINE      CODE     ---       #71
      00FF2E27H   LINE      CODE     ---       #72
      00FF2E29H   LINE      CODE     ---       #73
      00FF2E35H   LINE      CODE     ---       #75
      00FF2E38H   LINE      CODE     ---       #76
      00FF2E3BH   LINE      CODE     ---       #77
      00FF2E3EH   LINE      CODE     ---       #78
      00FF2E3EH   LINE      CODE     ---       #79
      00FF2E40H   LINE      CODE     ---       #80
      00FF2E4CH   LINE      CODE     ---       #82
      00FF2E4FH   LINE      CODE     ---       #83
      00FF2E52H   LINE      CODE     ---       #84
      00FF2E55H   LINE      CODE     ---       #85
      00FF2E55H   LINE      CODE     ---       #86
      00FF2E57H   LINE      CODE     ---       #117
      00FF2E5AH   LINE      CODE     ---       #118
      00FF2E5DH   LINE      CODE     ---       #119
      00FF2E60H   LINE      CODE     ---       #120
      00FF2E6CH   LINE      CODE     ---       #121
      00FF2E6CH   LINE      CODE     ---       #122
      ---         BLOCKEND  ---      ---       LVL=0
      DR28        REGSYM    ---      DWORD     temp_count

L251 LINKER/LOCATER V4.66.93.0                                                        04/10/2023  09:21:47  PAGE 25


      00FF310DH   BLOCK     CODE     ---       LVL=0
      00FF310DH   LINE      CODE     ---       #177
      00FF310DH   LINE      CODE     ---       #179
      00FF3110H   LINE      CODE     ---       #183
      00FF311CH   LINE      CODE     ---       #184
      00FF311FH   LINE      CODE     ---       #197
      00FF3122H   LINE      CODE     ---       #199
      00FF3125H   LINE      CODE     ---       #200
      00FF3128H   LINE      CODE     ---       #201
      00FF3134H   LINE      CODE     ---       #203
      00FF3137H   LINE      CODE     ---       #204
      00FF313AH   LINE      CODE     ---       #205
      00FF313DH   LINE      CODE     ---       #206
      00FF3140H   LINE      CODE     ---       #207
      00FF3143H   LINE      CODE     ---       #208
      00FF3146H   LINE      CODE     ---       #209
      00FF3149H   LINE      CODE     ---       #210
      00FF314CH   LINE      CODE     ---       #211
      00FF314FH   LINE      CODE     ---       #212
      00FF3152H   LINE      CODE     ---       #213
      00FF3155H   LINE      CODE     ---       #214
      00FF3158H   LINE      CODE     ---       #215
      00FF315BH   LINE      CODE     ---       #216
      00FF315EH   LINE      CODE     ---       #217
      00FF3161H   LINE      CODE     ---       #218
      00FF3164H   LINE      CODE     ---       #220
      00FF3167H   LINE      CODE     ---       #221
      00FF316AH   LINE      CODE     ---       #222
      00FF316DH   LINE      CODE     ---       #223
      00FF3170H   LINE      CODE     ---       #224
      00FF3173H   LINE      CODE     ---       #225
      00FF3176H   LINE      CODE     ---       #226
      00FF3179H   LINE      CODE     ---       #227
      00FF317CH   LINE      CODE     ---       #228
      00FF317FH   LINE      CODE     ---       #229
      00FF3182H   LINE      CODE     ---       #231
      ---         BLOCKEND  ---      ---       LVL=0
      R15         REGSYM    ---      CHAR      c

      00FF0086H   BLOCK     CODE     ---       LVL=0
      00FF0086H   LINE      CODE     ---       #245
      00FF0086H   LINE      CODE     ---       #247
      00FF0088H   LINE      CODE     ---       #248
      ---         BLOCKEND  ---      ---       LVL=0

      00FF005EH   BLOCK     CODE     ---       LVL=0
      00FF005EH   LINE      CODE     ---       #251
      00FF005EH   LINE      CODE     ---       #253
      00FF0060H   LINE      CODE     ---       #254
      ---         BLOCKEND  ---      ---       LVL=0

      ---         MODULE    ---      ---       common
      000000D0H   SFRSYM    DATA     BYTE      PSW
      00000088H   SFRSYM    DATA     BYTE      TCON
      00000098H   SFRSYM    DATA     BYTE      SCON
      000000B8H   SFRSYM    DATA     BYTE      IP
      000000A8H   SFRSYM    DATA     BYTE      IE
      000000F8H   SFRSYM    DATA     BYTE      P7
      000000E8H   SFRSYM    DATA     BYTE      P6
      000000C8H   SFRSYM    DATA     BYTE      P5
      000000C0H   SFRSYM    DATA     BYTE      P4
      000000B0H   SFRSYM    DATA     BYTE      P3
      000000A0H   SFRSYM    DATA     BYTE      P2
      00000090H   SFRSYM    DATA     BYTE      P1
      00000080H   SFRSYM    DATA     BYTE      P0
L251 LINKER/LOCATER V4.66.93.0                                                        04/10/2023  09:21:47  PAGE 26



      ---         MODULE    ---      ---       SEEKFREE_PRINTF
      000000D0H   SFRSYM    DATA     BYTE      PSW
      00000088H   SFRSYM    DATA     BYTE      TCON
      00000098H   SFRSYM    DATA     BYTE      SCON
      000000B8H   SFRSYM    DATA     BYTE      IP
      000000A8H   SFRSYM    DATA     BYTE      IE
      000000F8H   SFRSYM    DATA     BYTE      P7
      000000E8H   SFRSYM    DATA     BYTE      P6
      000000C8H   SFRSYM    DATA     BYTE      P5
      000000C0H   SFRSYM    DATA     BYTE      P4
      000000B0H   SFRSYM    DATA     BYTE      P3
      000000A0H   SFRSYM    DATA     BYTE      P2
      00000090H   SFRSYM    DATA     BYTE      P1
      00000080H   SFRSYM    DATA     BYTE      P0
      DR24        REGSYM    ---      DWORD     dat
      REG=7       REGSYM    ---      ---       p
      R10         REGSYM    ---      BYTE      neg_type
      DR20        REGSYM    ---      LONG      neg_dat
      DR24        REGSYM    ---      DWORD     pos_dat
      R14         REGSYM    ---      BYTE      temp_data
      R15         REGSYM    ---      BYTE      valid_num
      REG=7       REGSYM    ---      ---       d_buff
      DR24        REGSYM    ---      DWORD     len
      DR4         REGSYM    ---      DWORD     i
      R3          REGSYM    ---      CHAR      temp_data
      REG=3       REGSYM    ---      ---       buff

      ---         MODULE    ---      ---       DFPMU_SP
      00FF007DH   PUBLIC    CODE     ---       ?C?CASTF
      00FF3AD8H   PUBLIC    CODE     ---       ?C?FCASTI
      00FF0056H   PUBLIC    CODE     ---       ?C?FCASTL
      00FF0006H   PUBLIC    CODE     ---       ?C?FPADD
      00FF0046H   PUBLIC    CODE     ---       ?C?FPCMP3
      00FF001EH   PUBLIC    CODE     ---       ?C?FPDIV
      00FF0016H   PUBLIC    CODE     ---       ?C?FPMUL
      00FF3AD1H   PUBLIC    CODE     ---       ?C?FPNEG
      00FF000EH   PUBLIC    CODE     ---       ?C?FPSUB
      00FF003FH   PUBLIC    CODE     ---       SQRT?_
      000000E0H   SFRSYM    DATA     BYTE      ACC
      0000008FH   SFRSYM    DATA     BYTE      DMAIR
      00000083H   SFRSYM    DATA     BYTE      DPH
      00000082H   SFRSYM    DATA     BYTE      DPL
      0000001CH   SYMBOL    NUMBER   ---       DMA_FPADD
      00000030H   SYMBOL    NUMBER   ---       DMA_FPATAN
      00000027H   SYMBOL    NUMBER   ---       DMA_FPCLD
      00000032H   SYMBOL    NUMBER   ---       DMA_FPCLEX
      00000021H   SYMBOL    NUMBER   ---       DMA_FPCMP
      0000002EH   SYMBOL    NUMBER   ---       DMA_FPCOS
      00000035H   SYMBOL    NUMBER   ---       DMA_FPCRR
      00000036H   SYMBOL    NUMBER   ---       DMA_FPCRW
      00000023H   SYMBOL    NUMBER   ---       DMA_FPCST
      0000001FH   SYMBOL    NUMBER   ---       DMA_FPDIV
      00000028H   SYMBOL    NUMBER   ---       DMA_FPILD
      00000031H   SYMBOL    NUMBER   ---       DMA_FPINIT
      00000024H   SYMBOL    NUMBER   ---       DMA_FPIST
      00000029H   SYMBOL    NUMBER   ---       DMA_FPLLD
      00000025H   SYMBOL    NUMBER   ---       DMA_FPLST
      0000001EH   SYMBOL    NUMBER   ---       DMA_FPMUL
      0000002DH   SYMBOL    NUMBER   ---       DMA_FPSIN
      00000020H   SYMBOL    NUMBER   ---       DMA_FPSQRT
      00000033H   SYMBOL    NUMBER   ---       DMA_FPSRR
      00000034H   SYMBOL    NUMBER   ---       DMA_FPSRW
      0000001DH   SYMBOL    NUMBER   ---       DMA_FPSUB
      0000002FH   SYMBOL    NUMBER   ---       DMA_FPTAN
L251 LINKER/LOCATER V4.66.93.0                                                        04/10/2023  09:21:47  PAGE 27


      00000022H   SYMBOL    NUMBER   ---       DMA_FPXAM
      00000001H   SYMBOL    NUMBER   ---       FP_CONV_EN
      00000001H   SYMBOL    NUMBER   ---       FP_REGS_EN
      00000001H   SYMBOL    NUMBER   ---       FP_TRIG_EN

      00FF0006H   BLOCK     CODE     NEAR LAB  LVL=0
      00FF0006H   LINE      CODE     ---       #128
      00FF0009H   LINE      CODE     ---       #129
      ---         BLOCKEND  ---      ---       LVL=0

      00FF000EH   BLOCK     CODE     NEAR LAB  LVL=0
      00FF000EH   LINE      CODE     ---       #138
      00FF0011H   LINE      CODE     ---       #139
      ---         BLOCKEND  ---      ---       LVL=0

      00FF0016H   BLOCK     CODE     NEAR LAB  LVL=0
      00FF0016H   LINE      CODE     ---       #148
      00FF0019H   LINE      CODE     ---       #149
      ---         BLOCKEND  ---      ---       LVL=0

      00FF001EH   BLOCK     CODE     NEAR LAB  LVL=0
      00FF001EH   LINE      CODE     ---       #158
      00FF0021H   LINE      CODE     ---       #159
      ---         BLOCKEND  ---      ---       LVL=0

      00FF003FH   BLOCK     CODE     NEAR LAB  LVL=0
      00FF003FH   LINE      CODE     ---       #168
      00FF0042H   LINE      CODE     ---       #169
      ---         BLOCKEND  ---      ---       LVL=0

      00FF0046H   BLOCK     CODE     NEAR LAB  LVL=0
      00FF0046H   LINE      CODE     ---       #179
      00FF0049H   LINE      CODE     ---       #180
      00FF004BH   LINE      CODE     ---       #181
      00FF004DH   LINE      CODE     ---       #182
      00FF004FH   LINE      CODE     ---       #183
      00FF0051H   LINE      CODE     ---       #184
      ---         BLOCKEND  ---      ---       LVL=0

      00FF3AD1H   BLOCK     CODE     NEAR LAB  LVL=0
      00FF3AD1H   LINE      CODE     ---       #204
      00FF3AD3H   LINE      CODE     ---       #205
      00FF3AD5H   LINE      CODE     ---       #206
      00FF3AD7H   LINE      CODE     ---       #207
      ---         BLOCKEND  ---      ---       LVL=0

      00FF007DH   BLOCK     CODE     NEAR LAB  LVL=0
      00FF007DH   LINE      CODE     ---       #279
      00FF0080H   LINE      CODE     ---       #280
      00FF0082H   LINE      CODE     ---       #281
      ---         BLOCKEND  ---      ---       LVL=0

      00FF3AD8H   BLOCK     CODE     NEAR LAB  LVL=0
      00FF3AD8H   LINE      CODE     ---       #301
      00FF3ADAH   LINE      CODE     ---       #302
      00FF3ADDH   LINE      CODE     ---       #303
      ---         BLOCKEND  ---      ---       LVL=0

      00FF0056H   BLOCK     CODE     NEAR LAB  LVL=0
      00FF0056H   LINE      CODE     ---       #312
      00FF0059H   LINE      CODE     ---       #313
      ---         BLOCKEND  ---      ---       LVL=0

      ---         MODULE    ---      ---       zf_adc
      00FF3683H   PUBLIC    CODE     ---       adc_mean_filter
L251 LINKER/LOCATER V4.66.93.0                                                        04/10/2023  09:21:47  PAGE 28


      00FF38C4H   PUBLIC    CODE     ---       adc_once
      00FF349FH   PUBLIC    CODE     ---       adc_init
      000000F2H   SFRSYM    DATA     BYTE      P0M0
      000000D0H   SFRSYM    DATA     BYTE      PSW
      000000DEH   SFRSYM    DATA     BYTE      ADC_RESL
      00000088H   SFRSYM    DATA     BYTE      TCON
      00000098H   SFRSYM    DATA     BYTE      SCON
      000000DCH   SFRSYM    DATA     BYTE      ADC_CONTR
      000000DFH   SFRSYM    DATA     BYTE      ADCCFG
      000000B8H   SFRSYM    DATA     BYTE      IP
      000000DDH   SFRSYM    DATA     BYTE      ADC_RES
      000000A8H   SFRSYM    DATA     BYTE      IE
      000000F8H   SFRSYM    DATA     BYTE      P7
      000000E8H   SFRSYM    DATA     BYTE      P6
      000000C8H   SFRSYM    DATA     BYTE      P5
      000000C0H   SFRSYM    DATA     BYTE      P4
      000000B0H   SFRSYM    DATA     BYTE      P3
      000000A0H   SFRSYM    DATA     BYTE      P2
      00000090H   SFRSYM    DATA     BYTE      P1
      00000080H   SFRSYM    DATA     BYTE      P0
      000000F3H   SFRSYM    DATA     BYTE      P1M1
      000000F1H   SFRSYM    DATA     BYTE      P0M1
      000000F4H   SFRSYM    DATA     BYTE      P1M0

      00FF349FH   BLOCK     CODE     ---       LVL=0
      WR4         REGSYM    ---      INT       adcn
      WR2         REGSYM    ---      INT       speed
      00FF349FH   LINE      CODE     ---       #32
      00FF34A3H   LINE      CODE     ---       #34
      00FF34A6H   LINE      CODE     ---       #36
      00FF34A9H   LINE      CODE     ---       #37
      00FF34AFH   LINE      CODE     ---       #39
      00FF34BBH   LINE      CODE     ---       #42
      00FF34D0H   LINE      CODE     ---       #43
      00FF34D4H   LINE      CODE     ---       #44
      00FF34D6H   LINE      CODE     ---       #45
      00FF34DAH   LINE      CODE     ---       #48
      00FF34EFH   LINE      CODE     ---       #49
      00FF34F3H   LINE      CODE     ---       #50
      00FF34F3H   LINE      CODE     ---       #52
      00FF34F9H   LINE      CODE     ---       #54
      00FF34FCH   LINE      CODE     ---       #55
      ---         BLOCKEND  ---      ---       LVL=0

      00FF38C4H   BLOCK     CODE     ---       LVL=0
      WR6         REGSYM    ---      INT       adcn
      WR4         REGSYM    ---      INT       resolution
      WR6         REGSYM    ---      WORD      adc_value
      00FF38C4H   LINE      CODE     ---       #66
      00FF38C4H   LINE      CODE     ---       #67
      00FF38C4H   LINE      CODE     ---       #70
      00FF38C7H   LINE      CODE     ---       #71
      00FF38CBH   LINE      CODE     ---       #73
      00FF38CEH   LINE      CODE     ---       #74
      00FF38D3H   LINE      CODE     ---       #75
      00FF38D6H   LINE      CODE     ---       #77
      00FF38D8H   LINE      CODE     ---       #78
      00FF38DCH   LINE      CODE     ---       #79
      00FF38E2H   LINE      CODE     ---       #81
      00FF38E5H   LINE      CODE     ---       #82
      00FF38E8H   LINE      CODE     ---       #84
      00FF38F1H   LINE      CODE     ---       #87
      00FF38F1H   LINE      CODE     ---       #88
      ---         BLOCKEND  ---      ---       LVL=0

L251 LINKER/LOCATER V4.66.93.0                                                        04/10/2023  09:21:47  PAGE 29


      00FF3683H   BLOCK     CODE     ---       LVL=0
      WR12        REGSYM    ---      INT       adc
      WR14        REGSYM    ---      INT       resolution
      000002B9H   SYMBOL    EDATA    BYTE      count
      00FF368DH   BLOCK     CODE     NEAR LAB  LVL=1
      000002BAH   SYMBOL    EDATA    BYTE      i
      000002BBH   SYMBOL    EDATA    DWORD     sum
      ---         BLOCKEND  ---      ---       LVL=1
      00FF3683H   LINE      CODE     ---       #97
      00FF368DH   LINE      CODE     ---       #98
      00FF368DH   LINE      CODE     ---       #102
      00FF3693H   LINE      CODE     ---       #103
      00FF3696H   LINE      CODE     ---       #105
      00FF36ABH   LINE      CODE     ---       #106
      00FF36BEH   LINE      CODE     ---       #108
      00FF36C9H   LINE      CODE     ---       #109
      ---         BLOCKEND  ---      ---       LVL=0

      ---         MODULE    ---      ---       zf_delay
      00FF3852H   PUBLIC    CODE     ---       delay_init
      00FF0066H   PUBLIC    CODE     ---       delay_ms
      000003FDH   PUBLIC    EDATA    WORD      zf_delay_ms
      000003FFH   PUBLIC    EDATA    WORD      zf_delay_us
      000000D0H   SFRSYM    DATA     BYTE      PSW
      00000088H   SFRSYM    DATA     BYTE      TCON
      00000098H   SFRSYM    DATA     BYTE      SCON
      000000B8H   SFRSYM    DATA     BYTE      IP
      000000A8H   SFRSYM    DATA     BYTE      IE
      000000F8H   SFRSYM    DATA     BYTE      P7
      000000E8H   SFRSYM    DATA     BYTE      P6
      000000C8H   SFRSYM    DATA     BYTE      P5
      000000C0H   SFRSYM    DATA     BYTE      P4
      000000B0H   SFRSYM    DATA     BYTE      P3
      000000A0H   SFRSYM    DATA     BYTE      P2
      00000090H   SFRSYM    DATA     BYTE      P1
      00000080H   SFRSYM    DATA     BYTE      P0

      00FF3852H   BLOCK     CODE     ---       LVL=0
      00FF3852H   LINE      CODE     ---       #34
      00FF3852H   LINE      CODE     ---       #36
      00FF3863H   LINE      CODE     ---       #37
      00FF3874H   LINE      CODE     ---       #38
      00FF388AH   LINE      CODE     ---       #40
      ---         BLOCKEND  ---      ---       LVL=0

      00FF0066H   BLOCK     CODE     ---       LVL=0
      WR4         REGSYM    ---      WORD      ms
      00FF0068H   BLOCK     CODE     NEAR LAB  LVL=1
      WR6         REGSYM    ---      WORD      i
      ---         BLOCKEND  ---      ---       LVL=1
      00FF0066H   LINE      CODE     ---       #48
      00FF0068H   LINE      CODE     ---       #49
      00FF0068H   LINE      CODE     ---       #51
      00FF0068H   LINE      CODE     ---       #52
      00FF006CH   LINE      CODE     ---       #54
      00FF0074H   LINE      CODE     ---       #55
      00FF007CH   LINE      CODE     ---       #56
      ---         BLOCKEND  ---      ---       LVL=0
      DR0         REGSYM    ---      DWORD     us
      WR6         REGSYM    ---      WORD      i

      ---         MODULE    ---      ---       zf_exti
      00FF37D7H   PUBLIC    CODE     ---       exit_init
      000000D0H   SFRSYM    DATA     BYTE      PSW
      00000088H.2 SFRSYM    DATA     BIT       IT1
L251 LINKER/LOCATER V4.66.93.0                                                        04/10/2023  09:21:47  PAGE 30


      000000A8H.2 SFRSYM    DATA     BIT       EX1
      00000088H.0 SFRSYM    DATA     BIT       IT0
      000000A8H.0 SFRSYM    DATA     BIT       EX0
      00000088H   SFRSYM    DATA     BYTE      TCON
      00000098H   SFRSYM    DATA     BYTE      SCON
      000000B8H   SFRSYM    DATA     BYTE      IP
      00000095H   SFRSYM    DATA     BYTE      INTCLKO
      000000A8H   SFRSYM    DATA     BYTE      IE
      000000F8H   SFRSYM    DATA     BYTE      P7
      000000E8H   SFRSYM    DATA     BYTE      P6
      000000C8H   SFRSYM    DATA     BYTE      P5
      000000C0H   SFRSYM    DATA     BYTE      P4
      000000B0H   SFRSYM    DATA     BYTE      P3
      000000A0H   SFRSYM    DATA     BYTE      P2
      00000090H   SFRSYM    DATA     BYTE      P1
      00000080H   SFRSYM    DATA     BYTE      P0

      00FF37D7H   BLOCK     CODE     ---       LVL=0
      WR4         REGSYM    ---      INT       int_n
      WR2         REGSYM    ---      INT       mode
      00FF37D7H   LINE      CODE     ---       #30
      00FF37DBH   LINE      CODE     ---       #32
      00FF37DFH   LINE      CODE     ---       #34
      00FF37E9H   LINE      CODE     ---       #35
      00FF37EBH   LINE      CODE     ---       #36
      00FF37EBH   LINE      CODE     ---       #38
      00FF37F1H   LINE      CODE     ---       #40
      00FF37F7H   LINE      CODE     ---       #41
      00FF37F9H   LINE      CODE     ---       #42
      00FF37F9H   LINE      CODE     ---       #44
      00FF37FFH   LINE      CODE     ---       #46
      00FF3802H   LINE      CODE     ---       #47
      00FF3802H   LINE      CODE     ---       #49
      00FF3808H   LINE      CODE     ---       #51
      00FF380BH   LINE      CODE     ---       #52
      00FF380BH   LINE      CODE     ---       #54
      00FF3811H   LINE      CODE     ---       #56
      00FF3814H   LINE      CODE     ---       #57
      ---         BLOCKEND  ---      ---       LVL=0

      ---         MODULE    ---      ---       zf_gpio
      00FF33C3H   PUBLIC    CODE     ---       gpio_pull_set
      00FF1572H   PUBLIC    CODE     ---       gpio_mode
      000000F2H   SFRSYM    DATA     BYTE      P0M0
      000000D0H   SFRSYM    DATA     BYTE      PSW
      00000088H   SFRSYM    DATA     BYTE      TCON
      00000098H   SFRSYM    DATA     BYTE      SCON
      000000B8H   SFRSYM    DATA     BYTE      IP
      000000A8H   SFRSYM    DATA     BYTE      IE
      000000F8H   SFRSYM    DATA     BYTE      P7
      000000D2H   SFRSYM    DATA     BYTE      P7M1
      000000E8H   SFRSYM    DATA     BYTE      P6
      000000C8H   SFRSYM    DATA     BYTE      P5
      000000D3H   SFRSYM    DATA     BYTE      P7M0
      000000EEH   SFRSYM    DATA     BYTE      P6M1
      000000C0H   SFRSYM    DATA     BYTE      P4
      000000ECH   SFRSYM    DATA     BYTE      P5M1
      000000EFH   SFRSYM    DATA     BYTE      P6M0
      000000B0H   SFRSYM    DATA     BYTE      P3
      000000EDH   SFRSYM    DATA     BYTE      P5M0
      000000FBH   SFRSYM    DATA     BYTE      P4M1
      000000A0H   SFRSYM    DATA     BYTE      P2
      000000F9H   SFRSYM    DATA     BYTE      P3M1
      000000FCH   SFRSYM    DATA     BYTE      P4M0
      00000090H   SFRSYM    DATA     BYTE      P1
L251 LINKER/LOCATER V4.66.93.0                                                        04/10/2023  09:21:47  PAGE 31


      000000F5H   SFRSYM    DATA     BYTE      P2M1
      000000FAH   SFRSYM    DATA     BYTE      P3M0
      00000080H   SFRSYM    DATA     BYTE      P0
      000000F3H   SFRSYM    DATA     BYTE      P1M1
      000000F6H   SFRSYM    DATA     BYTE      P2M0
      000000F1H   SFRSYM    DATA     BYTE      P0M1
      000000F4H   SFRSYM    DATA     BYTE      P1M0

      00FF33C3H   BLOCK     CODE     ---       LVL=0
      WR4         REGSYM    ---      INT       pin
      WR2         REGSYM    ---      INT       pull
      00FF33C3H   LINE      CODE     ---       #33
      00FF33C7H   LINE      CODE     ---       #35
      00FF33CDH   LINE      CODE     ---       #37
      00FF33F9H   LINE      CODE     ---       #38
      00FF33FBH   LINE      CODE     ---       #39
      00FF33FFH   LINE      CODE     ---       #41
      00FF3430H   LINE      CODE     ---       #42
      ---         BLOCKEND  ---      ---       LVL=0

      00FF1572H   BLOCK     CODE     ---       LVL=0
      WR4         REGSYM    ---      INT       pin
      WR2         REGSYM    ---      INT       mode
      00FF1572H   LINE      CODE     ---       #54
      00FF1576H   LINE      CODE     ---       #56
      00FF157DH   LINE      CODE     ---       #58
      00FF1585H   LINE      CODE     ---       #60
      00FF159DH   LINE      CODE     ---       #61
      00FF159FH   LINE      CODE     ---       #62
      00FF159FH   LINE      CODE     ---       #63
      00FF15A5H   LINE      CODE     ---       #65
      00FF15BDH   LINE      CODE     ---       #66
      00FF15BFH   LINE      CODE     ---       #67
      00FF15BFH   LINE      CODE     ---       #68
      00FF15C5H   LINE      CODE     ---       #70
      00FF15DDH   LINE      CODE     ---       #71
      00FF15DFH   LINE      CODE     ---       #72
      00FF15DFH   LINE      CODE     ---       #74
      00FF15E5H   LINE      CODE     ---       #76
      00FF15FDH   LINE      CODE     ---       #77
      00FF15FFH   LINE      CODE     ---       #78
      00FF15FFH   LINE      CODE     ---       #79
      00FF1605H   LINE      CODE     ---       #81
      00FF161DH   LINE      CODE     ---       #82
      00FF161FH   LINE      CODE     ---       #83
      00FF161FH   LINE      CODE     ---       #84
      00FF1625H   LINE      CODE     ---       #86
      00FF163DH   LINE      CODE     ---       #87
      00FF163FH   LINE      CODE     ---       #88
      00FF163FH   LINE      CODE     ---       #89
      00FF1645H   LINE      CODE     ---       #91
      00FF165DH   LINE      CODE     ---       #92
      00FF165FH   LINE      CODE     ---       #93
      00FF165FH   LINE      CODE     ---       #94
      00FF1668H   LINE      CODE     ---       #96
      00FF1680H   LINE      CODE     ---       #97
      00FF1682H   LINE      CODE     ---       #98
      00FF1683H   LINE      CODE     ---       #100
      00FF168CH   LINE      CODE     ---       #102
      00FF1694H   LINE      CODE     ---       #104
      00FF16A9H   LINE      CODE     ---       #105
      00FF16ADH   LINE      CODE     ---       #106
      00FF16ADH   LINE      CODE     ---       #107
      00FF16B3H   LINE      CODE     ---       #109
      00FF16C8H   LINE      CODE     ---       #110
L251 LINKER/LOCATER V4.66.93.0                                                        04/10/2023  09:21:47  PAGE 32


      00FF16CCH   LINE      CODE     ---       #111
      00FF16CCH   LINE      CODE     ---       #112
      00FF16D2H   LINE      CODE     ---       #114
      00FF16E7H   LINE      CODE     ---       #115
      00FF16EBH   LINE      CODE     ---       #116
      00FF16EBH   LINE      CODE     ---       #118
      00FF16F1H   LINE      CODE     ---       #120
      00FF1706H   LINE      CODE     ---       #121
      00FF170AH   LINE      CODE     ---       #122
      00FF170AH   LINE      CODE     ---       #123
      00FF1710H   LINE      CODE     ---       #125
      00FF1725H   LINE      CODE     ---       #126
      00FF1729H   LINE      CODE     ---       #127
      00FF1729H   LINE      CODE     ---       #128
      00FF172FH   LINE      CODE     ---       #130
      00FF1744H   LINE      CODE     ---       #131
      00FF1748H   LINE      CODE     ---       #132
      00FF1748H   LINE      CODE     ---       #133
      00FF174EH   LINE      CODE     ---       #135
      00FF1763H   LINE      CODE     ---       #136
      00FF1767H   LINE      CODE     ---       #137
      00FF1767H   LINE      CODE     ---       #138
      00FF1770H   LINE      CODE     ---       #140
      00FF1787H   LINE      CODE     ---       #141
      00FF1787H   LINE      CODE     ---       #142
      00FF178AH   LINE      CODE     ---       #145
      00FF1793H   LINE      CODE     ---       #147
      00FF179BH   LINE      CODE     ---       #149
      00FF17AEH   LINE      CODE     ---       #150
      00FF17B2H   LINE      CODE     ---       #151
      00FF17B2H   LINE      CODE     ---       #152
      00FF17B8H   LINE      CODE     ---       #154
      00FF17CBH   LINE      CODE     ---       #155
      00FF17CFH   LINE      CODE     ---       #156
      00FF17CFH   LINE      CODE     ---       #157
      00FF17D5H   LINE      CODE     ---       #159
      00FF17E8H   LINE      CODE     ---       #160
      00FF17ECH   LINE      CODE     ---       #161
      00FF17ECH   LINE      CODE     ---       #163
      00FF17F2H   LINE      CODE     ---       #165
      00FF1805H   LINE      CODE     ---       #166
      00FF1809H   LINE      CODE     ---       #167
      00FF1809H   LINE      CODE     ---       #168
      00FF180FH   LINE      CODE     ---       #170
      00FF1822H   LINE      CODE     ---       #171
      00FF1826H   LINE      CODE     ---       #172
      00FF1826H   LINE      CODE     ---       #173
      00FF182CH   LINE      CODE     ---       #175
      00FF183FH   LINE      CODE     ---       #176
      00FF1843H   LINE      CODE     ---       #177
      00FF1843H   LINE      CODE     ---       #178
      00FF1849H   LINE      CODE     ---       #180
      00FF185CH   LINE      CODE     ---       #181
      00FF1860H   LINE      CODE     ---       #182
      00FF1860H   LINE      CODE     ---       #183
      00FF1869H   LINE      CODE     ---       #185
      00FF187CH   LINE      CODE     ---       #186
      00FF1880H   LINE      CODE     ---       #187
      00FF1881H   LINE      CODE     ---       #189
      00FF188AH   LINE      CODE     ---       #191
      00FF1892H   LINE      CODE     ---       #193
      00FF18A5H   LINE      CODE     ---       #194
      00FF18A7H   LINE      CODE     ---       #195
      00FF18A7H   LINE      CODE     ---       #196
      00FF18ADH   LINE      CODE     ---       #198
L251 LINKER/LOCATER V4.66.93.0                                                        04/10/2023  09:21:47  PAGE 33


      00FF18C0H   LINE      CODE     ---       #199
      00FF18C2H   LINE      CODE     ---       #200
      00FF18C2H   LINE      CODE     ---       #201
      00FF18C8H   LINE      CODE     ---       #203
      00FF18DBH   LINE      CODE     ---       #204
      00FF18DDH   LINE      CODE     ---       #205
      00FF18DDH   LINE      CODE     ---       #207
      00FF18E3H   LINE      CODE     ---       #209
      00FF18F6H   LINE      CODE     ---       #210
      00FF18F8H   LINE      CODE     ---       #211
      00FF18F8H   LINE      CODE     ---       #212
      00FF18FEH   LINE      CODE     ---       #214
      00FF1911H   LINE      CODE     ---       #215
      00FF1913H   LINE      CODE     ---       #216
      00FF1913H   LINE      CODE     ---       #217
      00FF1919H   LINE      CODE     ---       #219
      00FF192CH   LINE      CODE     ---       #220
      00FF192EH   LINE      CODE     ---       #221
      00FF192EH   LINE      CODE     ---       #222
      00FF1934H   LINE      CODE     ---       #224
      00FF1947H   LINE      CODE     ---       #225
      00FF1949H   LINE      CODE     ---       #226
      00FF1949H   LINE      CODE     ---       #227
      00FF194FH   LINE      CODE     ---       #229
      00FF1964H   LINE      CODE     ---       #230
      00FF1968H   LINE      CODE     ---       #231
      00FF1968H   LINE      CODE     ---       #233
      ---         BLOCKEND  ---      ---       LVL=0

      ---         MODULE    ---      ---       zf_iic
      000000D0H   SFRSYM    DATA     BYTE      PSW
      00000088H   SFRSYM    DATA     BYTE      TCON
      00000098H   SFRSYM    DATA     BYTE      SCON
      000000B8H   SFRSYM    DATA     BYTE      IP
      000000A8H   SFRSYM    DATA     BYTE      IE
      0000009BH   SFRSYM    DATA     BYTE      P_SW2
      000000F8H   SFRSYM    DATA     BYTE      P7
      000000E8H   SFRSYM    DATA     BYTE      P6
      000000C8H   SFRSYM    DATA     BYTE      P5
      000000C0H   SFRSYM    DATA     BYTE      P4
      000000B0H   SFRSYM    DATA     BYTE      P3
      000000A0H   SFRSYM    DATA     BYTE      P2
      00000090H   SFRSYM    DATA     BYTE      P1
      00000080H   SFRSYM    DATA     BYTE      P0
      WR6         REGSYM    ---      WORD      x
      R10         REGSYM    ---      BYTE      i
      WR12        REGSYM    ---      WORD      count
      R15         REGSYM    ---      BYTE      ret
      R11         REGSYM    ---      BYTE      ret
      R11         REGSYM    ---      CHAR      dat
      R11         REGSYM    ---      BYTE      ret
      R11         REGSYM    ---      BYTE      ret
      R11         REGSYM    ---      BYTE      ret
      R11         REGSYM    ---      BYTE      ret
      WR6         REGSYM    ---      INT       iic_n
      R13         REGSYM    ---      BYTE      dev_add
      R14         REGSYM    ---      BYTE      reg
      R15         REGSYM    ---      BYTE      dat
      R15         REGSYM    ---      BYTE      dev_add
      R14         REGSYM    ---      BYTE      reg
      REG=3       REGSYM    ---      ---       dat
      WR6         REGSYM    ---      INT       iic_n

      ---         MODULE    ---      ---       zf_nvic
      000000D0H   SFRSYM    DATA     BYTE      PSW
L251 LINKER/LOCATER V4.66.93.0                                                        04/10/2023  09:21:47  PAGE 34


      000000B7H   SFRSYM    DATA     BYTE      IPH
      000000FEH   SFRSYM    DATA     BYTE      IP2
      00000088H   SFRSYM    DATA     BYTE      TCON
      00000098H   SFRSYM    DATA     BYTE      SCON
      000000B8H   SFRSYM    DATA     BYTE      IP
      000000B6H   SFRSYM    DATA     BYTE      IP2H
      000000A8H   SFRSYM    DATA     BYTE      IE
      000000F8H   SFRSYM    DATA     BYTE      P7
      000000E8H   SFRSYM    DATA     BYTE      P6
      000000C8H   SFRSYM    DATA     BYTE      P5
      000000C0H   SFRSYM    DATA     BYTE      P4
      000000B0H   SFRSYM    DATA     BYTE      P3
      000000A0H   SFRSYM    DATA     BYTE      P2
      00000090H   SFRSYM    DATA     BYTE      P1
      00000080H   SFRSYM    DATA     BYTE      P0
      WR4         REGSYM    ---      INT       irqn
      R3          REGSYM    ---      BYTE      priority

      ---         MODULE    ---      ---       zf_pwm
      00FF2E6DH   PUBLIC    CODE     ---       pwm_duty
      00FF1C4DH   PUBLIC    CODE     ---       pwm_set_gpio
      00FF1969H   PUBLIC    CODE     ---       pwm_init
      00FF3FE8H   PUBLIC    HCONST   ---       PWM_CCR_ADDR
      00FF4008H   PUBLIC    HCONST   ---       PWM_ARR_ADDR
      00FF4010H   PUBLIC    HCONST   ---       PWM_CCER_ADDR
      00FF4020H   PUBLIC    HCONST   ---       PWM_CCMR_ADDR
      000002D1H   PUBLIC    EDATA    ---       ?pwm_init?BYTE
      000000D0H   SFRSYM    DATA     BYTE      PSW
      00000088H   SFRSYM    DATA     BYTE      TCON
      00000098H   SFRSYM    DATA     BYTE      SCON
      000000B8H   SFRSYM    DATA     BYTE      IP
      000000A8H   SFRSYM    DATA     BYTE      IE
      0000009BH   SFRSYM    DATA     BYTE      P_SW2
      000000F8H   SFRSYM    DATA     BYTE      P7
      000000E8H   SFRSYM    DATA     BYTE      P6
      000000C8H   SFRSYM    DATA     BYTE      P5
      000000C0H   SFRSYM    DATA     BYTE      P4
      000000B0H   SFRSYM    DATA     BYTE      P3
      000000A0H   SFRSYM    DATA     BYTE      P2
      00000090H   SFRSYM    DATA     BYTE      P1
      00000080H   SFRSYM    DATA     BYTE      P0

      00FF1C4DH   BLOCK     CODE     ---       LVL=0
      WR6         REGSYM    ---      INT       pwmch
      00FF1C4DH   LINE      CODE     ---       #49
      00FF1C4DH   LINE      CODE     ---       #51
      00FF1DC0H   LINE      CODE     ---       #53
      00FF1DC0H   LINE      CODE     ---       #55
      00FF1DC4H   LINE      CODE     ---       #56
      00FF1DC7H   LINE      CODE     ---       #58
      00FF1DC7H   LINE      CODE     ---       #60
      00FF1DCBH   LINE      CODE     ---       #61
      00FF1DCEH   LINE      CODE     ---       #63
      00FF1DCEH   LINE      CODE     ---       #65
      00FF1DD2H   LINE      CODE     ---       #66
      00FF1DD5H   LINE      CODE     ---       #68
      00FF1DD5H   LINE      CODE     ---       #70
      00FF1DD9H   LINE      CODE     ---       #71
      00FF1DDCH   LINE      CODE     ---       #73
      00FF1DDCH   LINE      CODE     ---       #75
      00FF1DE0H   LINE      CODE     ---       #76
      00FF1DE3H   LINE      CODE     ---       #78
      00FF1DE3H   LINE      CODE     ---       #80
      00FF1DE7H   LINE      CODE     ---       #81
      00FF1DEAH   LINE      CODE     ---       #84
L251 LINKER/LOCATER V4.66.93.0                                                        04/10/2023  09:21:47  PAGE 35


      00FF1DEAH   LINE      CODE     ---       #86
      00FF1DEEH   LINE      CODE     ---       #87
      00FF1DF1H   LINE      CODE     ---       #89
      00FF1DF1H   LINE      CODE     ---       #91
      00FF1DF5H   LINE      CODE     ---       #92
      00FF1DF8H   LINE      CODE     ---       #94
      00FF1DF8H   LINE      CODE     ---       #96
      00FF1DFCH   LINE      CODE     ---       #97
      00FF1DFFH   LINE      CODE     ---       #99
      00FF1DFFH   LINE      CODE     ---       #101
      00FF1E03H   LINE      CODE     ---       #102
      00FF1E06H   LINE      CODE     ---       #104
      00FF1E06H   LINE      CODE     ---       #106
      00FF1E0AH   LINE      CODE     ---       #107
      00FF1E0DH   LINE      CODE     ---       #109
      00FF1E0DH   LINE      CODE     ---       #111
      00FF1E11H   LINE      CODE     ---       #112
      00FF1E14H   LINE      CODE     ---       #115
      00FF1E14H   LINE      CODE     ---       #117
      00FF1E18H   LINE      CODE     ---       #118
      00FF1E1AH   LINE      CODE     ---       #120
      00FF1E1AH   LINE      CODE     ---       #122
      00FF1E1EH   LINE      CODE     ---       #123
      00FF1E20H   LINE      CODE     ---       #125
      00FF1E20H   LINE      CODE     ---       #127
      00FF1E24H   LINE      CODE     ---       #128
      00FF1E26H   LINE      CODE     ---       #130
      00FF1E26H   LINE      CODE     ---       #132
      00FF1E2AH   LINE      CODE     ---       #133
      00FF1E2CH   LINE      CODE     ---       #135
      00FF1E2CH   LINE      CODE     ---       #137
      00FF1E30H   LINE      CODE     ---       #138
      00FF1E32H   LINE      CODE     ---       #140
      00FF1E32H   LINE      CODE     ---       #142
      00FF1E36H   LINE      CODE     ---       #143
      00FF1E38H   LINE      CODE     ---       #147
      00FF1E38H   LINE      CODE     ---       #149
      00FF1E3CH   LINE      CODE     ---       #150
      00FF1E3EH   LINE      CODE     ---       #152
      00FF1E3EH   LINE      CODE     ---       #154
      00FF1E42H   LINE      CODE     ---       #155
      00FF1E44H   LINE      CODE     ---       #157
      00FF1E44H   LINE      CODE     ---       #159
      00FF1E48H   LINE      CODE     ---       #160
      00FF1E4AH   LINE      CODE     ---       #162
      00FF1E4AH   LINE      CODE     ---       #164
      00FF1E4EH   LINE      CODE     ---       #165
      00FF1E50H   LINE      CODE     ---       #167
      00FF1E50H   LINE      CODE     ---       #169
      00FF1E54H   LINE      CODE     ---       #170
      00FF1E56H   LINE      CODE     ---       #172
      00FF1E56H   LINE      CODE     ---       #174
      00FF1E5AH   LINE      CODE     ---       #175
      00FF1E5CH   LINE      CODE     ---       #177
      00FF1E5CH   LINE      CODE     ---       #179
      00FF1E60H   LINE      CODE     ---       #180
      00FF1E62H   LINE      CODE     ---       #182
      00FF1E62H   LINE      CODE     ---       #184
      00FF1E66H   LINE      CODE     ---       #185
      00FF1E68H   LINE      CODE     ---       #189
      00FF1E68H   LINE      CODE     ---       #191
      00FF1E6CH   LINE      CODE     ---       #192
      00FF1E6EH   LINE      CODE     ---       #194
      00FF1E6EH   LINE      CODE     ---       #196
      00FF1E72H   LINE      CODE     ---       #197
L251 LINKER/LOCATER V4.66.93.0                                                        04/10/2023  09:21:47  PAGE 36


      00FF1E74H   LINE      CODE     ---       #199
      00FF1E74H   LINE      CODE     ---       #201
      00FF1E76H   LINE      CODE     ---       #202
      00FF1E78H   LINE      CODE     ---       #204
      00FF1E78H   LINE      CODE     ---       #206
      00FF1E7CH   LINE      CODE     ---       #207
      00FF1E7EH   LINE      CODE     ---       #210
      00FF1E7EH   LINE      CODE     ---       #212
      00FF1E82H   LINE      CODE     ---       #213
      00FF1E84H   LINE      CODE     ---       #215
      00FF1E84H   LINE      CODE     ---       #217
      00FF1E88H   LINE      CODE     ---       #218
      00FF1E8AH   LINE      CODE     ---       #220
      00FF1E8AH   LINE      CODE     ---       #222
      00FF1E90H   LINE      CODE     ---       #223
      00FF1E92H   LINE      CODE     ---       #225
      00FF1E92H   LINE      CODE     ---       #227
      00FF1E9AH   LINE      CODE     ---       #228
      00FF1E9CH   LINE      CODE     ---       #232
      00FF1E9CH   LINE      CODE     ---       #234
      00FF1EA4H   LINE      CODE     ---       #235
      00FF1EA6H   LINE      CODE     ---       #237
      00FF1EA6H   LINE      CODE     ---       #239
      00FF1EAEH   LINE      CODE     ---       #240
      00FF1EB0H   LINE      CODE     ---       #242
      00FF1EB0H   LINE      CODE     ---       #244
      00FF1EB8H   LINE      CODE     ---       #245
      00FF1EBAH   LINE      CODE     ---       #247
      00FF1EBAH   LINE      CODE     ---       #249
      00FF1EC2H   LINE      CODE     ---       #250
      00FF1EC4H   LINE      CODE     ---       #254
      00FF1EC4H   LINE      CODE     ---       #256
      00FF1ECCH   LINE      CODE     ---       #257
      00FF1ECEH   LINE      CODE     ---       #259
      00FF1ECEH   LINE      CODE     ---       #261
      00FF1ED6H   LINE      CODE     ---       #262
      00FF1ED8H   LINE      CODE     ---       #264
      00FF1ED8H   LINE      CODE     ---       #266
      00FF1EE0H   LINE      CODE     ---       #267
      00FF1EE2H   LINE      CODE     ---       #269
      00FF1EE2H   LINE      CODE     ---       #271
      00FF1EEDH   LINE      CODE     ---       #272
      00FF1EEDH   LINE      CODE     ---       #275
      00FF1EEDH   LINE      CODE     ---       #277
      ---         BLOCKEND  ---      ---       LVL=0

      00FF1969H   BLOCK     CODE     ---       LVL=0
      WR14        REGSYM    ---      INT       pwmch
      000002D3H   SYMBOL    EDATA    DWORD     freq
      000002D7H   SYMBOL    EDATA    DWORD     duty
      00FF1971H   BLOCK     CODE     NEAR LAB  LVL=1
      DR4         REGSYM    ---      DWORD     match_temp
      DR28        REGSYM    ---      DWORD     period_temp
      WR26        REGSYM    ---      WORD      freq_div
      ---         BLOCKEND  ---      ---       LVL=1
      00FF1969H   LINE      CODE     ---       #290
      00FF1971H   LINE      CODE     ---       #291
      00FF1971H   LINE      CODE     ---       #295
      00FF1971H   LINE      CODE     ---       #298
      00FF1974H   LINE      CODE     ---       #301
      00FF1977H   LINE      CODE     ---       #305
      00FF1988H   LINE      CODE     ---       #306
      00FF1988H   LINE      CODE     ---       #307
      00FF1991H   LINE      CODE     ---       #309
      00FF19B2H   LINE      CODE     ---       #312
L251 LINKER/LOCATER V4.66.93.0                                                        04/10/2023  09:21:47  PAGE 37


      00FF19BBH   LINE      CODE     ---       #315
      00FF19E6H   LINE      CODE     ---       #316
      00FF1A07H   LINE      CODE     ---       #319
      00FF1A53H   LINE      CODE     ---       #322
      00FF1A62H   LINE      CODE     ---       #323
      00FF1A6DH   LINE      CODE     ---       #325
      00FF1A76H   LINE      CODE     ---       #326
      00FF1A7CH   LINE      CODE     ---       #327
      00FF1A7FH   LINE      CODE     ---       #330
      00FF1AB7H   LINE      CODE     ---       #331
      00FF1ADAH   LINE      CODE     ---       #334
      00FF1B2CH   LINE      CODE     ---       #338
      00FF1B3BH   LINE      CODE     ---       #339
      00FF1B46H   LINE      CODE     ---       #341
      00FF1B4FH   LINE      CODE     ---       #342
      00FF1B5CH   LINE      CODE     ---       #343
      00FF1B5CH   LINE      CODE     ---       #346
      00FF1B88H   LINE      CODE     ---       #347
      00FF1BB6H   LINE      CODE     ---       #350
      00FF1BDCH   LINE      CODE     ---       #351
      00FF1C08H   LINE      CODE     ---       #354
      00FF1C1FH   LINE      CODE     ---       #355
      00FF1C4AH   LINE      CODE     ---       #360
      ---         BLOCKEND  ---      ---       LVL=0

      00FF2E6DH   BLOCK     CODE     ---       LVL=0
      WR30        REGSYM    ---      INT       pwmch
      DR24        REGSYM    ---      DWORD     duty
      00FF2E71H   BLOCK     CODE     NEAR LAB  LVL=1
      DR0         REGSYM    ---      DWORD     match_temp
      DR20        REGSYM    ---      DWORD     arr
      ---         BLOCKEND  ---      ---       LVL=1
      00FF2E6DH   LINE      CODE     ---       #370
      00FF2E71H   LINE      CODE     ---       #371
      00FF2E71H   LINE      CODE     ---       #373
      00FF2EB5H   LINE      CODE     ---       #377
      00FF2ED6H   LINE      CODE     ---       #381
      00FF2EFCH   LINE      CODE     ---       #382
      00FF2F24H   LINE      CODE     ---       #386
      ---         BLOCKEND  ---      ---       LVL=0
      WR30        REGSYM    ---      INT       pwmch
      DR24        REGSYM    ---      DWORD     freq
      DR0         REGSYM    ---      DWORD     match_temp
      DR24        REGSYM    ---      DWORD     period_temp
      WR28        REGSYM    ---      WORD      freq_div

      ---         MODULE    ---      ---       zf_spi
      00FF2B3DH   PUBLIC    CODE     ---       spi_init
      00FF3A76H   PUBLIC    CODE     ---       spi_mosi
      000002CAH   PUBLIC    EDATA    ---       ?spi_init?BYTE
      000000BBH   SFRSYM    DATA     BYTE      SPDAT
      000000D0H   SFRSYM    DATA     BYTE      PSW
      000000B9H   SFRSYM    DATA     BYTE      SPSTAT
      00000088H   SFRSYM    DATA     BYTE      TCON
      00000098H   SFRSYM    DATA     BYTE      SCON
      000000B8H   SFRSYM    DATA     BYTE      IP
      000000A8H   SFRSYM    DATA     BYTE      IE
      0000009AH   SFRSYM    DATA     BYTE      P_SW1
      000000BAH   SFRSYM    DATA     BYTE      SPCTL
      000000F8H   SFRSYM    DATA     BYTE      P7
      000000E8H   SFRSYM    DATA     BYTE      P6
      000000C8H   SFRSYM    DATA     BYTE      P5
      000000C0H   SFRSYM    DATA     BYTE      P4
      000000B0H   SFRSYM    DATA     BYTE      P3
      000000A0H   SFRSYM    DATA     BYTE      P2
L251 LINKER/LOCATER V4.66.93.0                                                        04/10/2023  09:21:47  PAGE 38


      00000090H   SFRSYM    DATA     BYTE      P1
      00000080H   SFRSYM    DATA     BYTE      P0

      00FF2B3DH   BLOCK     CODE     ---       LVL=0
      WR14        REGSYM    ---      INT       spi_n
      R13         REGSYM    ---      BYTE      mode
      000002D3H   SYMBOL    EDATA    INT       mstr
      000002D5H   SYMBOL    EDATA    INT       baud
      00FF2B3DH   LINE      CODE     ---       #39
      00FF2B45H   LINE      CODE     ---       #47
      00FF2B57H   LINE      CODE     ---       #50
      00FF2B57H   LINE      CODE     ---       #51
      00FF2B60H   LINE      CODE     ---       #52
      00FF2B69H   LINE      CODE     ---       #53
      00FF2B6DH   LINE      CODE     ---       #54
      00FF2B6FH   LINE      CODE     ---       #55
      00FF2B6FH   LINE      CODE     ---       #56
      00FF2B78H   LINE      CODE     ---       #57
      00FF2B81H   LINE      CODE     ---       #58
      00FF2B85H   LINE      CODE     ---       #59
      00FF2B87H   LINE      CODE     ---       #60
      00FF2B87H   LINE      CODE     ---       #61
      00FF2B90H   LINE      CODE     ---       #62
      00FF2B99H   LINE      CODE     ---       #63
      00FF2B9DH   LINE      CODE     ---       #64
      00FF2B9FH   LINE      CODE     ---       #65
      00FF2B9FH   LINE      CODE     ---       #66
      00FF2BA8H   LINE      CODE     ---       #67
      00FF2BB1H   LINE      CODE     ---       #68
      00FF2BBAH   LINE      CODE     ---       #69
      00FF2BBAH   LINE      CODE     ---       #70
      00FF2BBAH   LINE      CODE     ---       #72
      00FF2BBDH   LINE      CODE     ---       #73
      00FF2BCFH   LINE      CODE     ---       #75
      00FF2BCFH   LINE      CODE     ---       #76
      00FF2BD3H   LINE      CODE     ---       #77
      00FF2BD5H   LINE      CODE     ---       #78
      00FF2BD5H   LINE      CODE     ---       #79
      00FF2BD8H   LINE      CODE     ---       #80
      00FF2BDAH   LINE      CODE     ---       #81
      00FF2BDAH   LINE      CODE     ---       #82
      00FF2BDDH   LINE      CODE     ---       #83
      00FF2BDFH   LINE      CODE     ---       #84
      00FF2BDFH   LINE      CODE     ---       #85
      00FF2BE2H   LINE      CODE     ---       #86
      00FF2BE2H   LINE      CODE     ---       #87
      00FF2BE2H   LINE      CODE     ---       #89
      00FF2BE5H   LINE      CODE     ---       #90
      00FF2BF1H   LINE      CODE     ---       #92
      00FF2BF1H   LINE      CODE     ---       #94
      00FF2BF1H   LINE      CODE     ---       #95
      00FF2BF1H   LINE      CODE     ---       #96
      00FF2BF4H   LINE      CODE     ---       #97
      00FF2BF6H   LINE      CODE     ---       #98
      00FF2BF6H   LINE      CODE     ---       #99
      00FF2BF9H   LINE      CODE     ---       #100
      00FF2BFBH   LINE      CODE     ---       #101
      00FF2BFBH   LINE      CODE     ---       #102
      00FF2BFEH   LINE      CODE     ---       #103
      00FF2BFEH   LINE      CODE     ---       #104
      00FF2BFEH   LINE      CODE     ---       #107
      00FF2C06H   LINE      CODE     ---       #109
      00FF2C0EH   LINE      CODE     ---       #111
      00FF2C11H   LINE      CODE     ---       #112
      00FF2C14H   LINE      CODE     ---       #113
L251 LINKER/LOCATER V4.66.93.0                                                        04/10/2023  09:21:47  PAGE 39


      00FF2C14H   LINE      CODE     ---       #117
      00FF2C14H   LINE      CODE     ---       #118
      00FF2C17H   LINE      CODE     ---       #119
      ---         BLOCKEND  ---      ---       LVL=0

      00FF3A76H   BLOCK     CODE     ---       LVL=0
      R11         REGSYM    ---      BYTE      dat
      00FF3A76H   LINE      CODE     ---       #129
      00FF3A76H   LINE      CODE     ---       #131
      00FF3A79H   LINE      CODE     ---       #132
      00FF3A7EH   LINE      CODE     ---       #133
      00FF3A81H   LINE      CODE     ---       #134
      00FF3A83H   LINE      CODE     ---       #135
      ---         BLOCKEND  ---      ---       LVL=0
      WR14        REGSYM    ---      INT       spi_n
      R7          REGSYM    ---      BYTE      mode

      ---         MODULE    ---      ---       zf_tim
      00FF35ECH   PUBLIC    CODE     ---       ctimer_count_read
      00FF3079H   PUBLIC    CODE     ---       pit_timer_ms
      00FF3639H   PUBLIC    CODE     ---       ctimer_count_init
      00FF34FDH   PUBLIC    CODE     ---       ctimer_count_clean
      000000D0H   SFRSYM    DATA     BYTE      PSW
      000000DBH   SFRSYM    DATA     BYTE      T4T3M
      00000088H.6 SFRSYM    DATA     BIT       TR1
      00000088H.4 SFRSYM    DATA     BIT       TR0
      000000CAH   SFRSYM    DATA     BYTE      T4L
      000000CCH   SFRSYM    DATA     BYTE      T3L
      000000CEH   SFRSYM    DATA     BYTE      T2L
      0000008BH   SFRSYM    DATA     BYTE      TL1
      0000008AH   SFRSYM    DATA     BYTE      TL0
      000000C9H   SFRSYM    DATA     BYTE      T4H
      000000CBH   SFRSYM    DATA     BYTE      T3H
      000000CDH   SFRSYM    DATA     BYTE      T2H
      0000008DH   SFRSYM    DATA     BYTE      TH1
      0000008CH   SFRSYM    DATA     BYTE      TH0
      000000A8H.3 SFRSYM    DATA     BIT       ET1
      000000A8H.1 SFRSYM    DATA     BIT       ET0
      00000093H   SFRSYM    DATA     BYTE      AUXR
      000000E7H   SFRSYM    DATA     BYTE      IE2
      00000088H   SFRSYM    DATA     BYTE      TCON
      00000089H   SFRSYM    DATA     BYTE      TMOD
      00000098H   SFRSYM    DATA     BYTE      SCON
      000000B8H   SFRSYM    DATA     BYTE      IP
      000000A8H   SFRSYM    DATA     BYTE      IE
      000000F8H   SFRSYM    DATA     BYTE      P7
      000000E8H   SFRSYM    DATA     BYTE      P6
      000000C8H   SFRSYM    DATA     BYTE      P5
      000000C0H   SFRSYM    DATA     BYTE      P4
      000000B0H   SFRSYM    DATA     BYTE      P3
      000000A0H   SFRSYM    DATA     BYTE      P2
      00000090H   SFRSYM    DATA     BYTE      P1
      00000080H   SFRSYM    DATA     BYTE      P0

      00FF3639H   BLOCK     CODE     ---       LVL=0
      WR6         REGSYM    ---      INT       tim_n
      00FF3639H   LINE      CODE     ---       #39
      00FF3639H   LINE      CODE     ---       #42
      00FF364DH   LINE      CODE     ---       #44
      00FF364DH   LINE      CODE     ---       #46
      00FF3650H   LINE      CODE     ---       #47
      00FF3653H   LINE      CODE     ---       #48
      00FF3656H   LINE      CODE     ---       #49
      00FF3658H   LINE      CODE     ---       #50
      00FF3659H   LINE      CODE     ---       #53
L251 LINKER/LOCATER V4.66.93.0                                                        04/10/2023  09:21:47  PAGE 40


      00FF3659H   LINE      CODE     ---       #55
      00FF365CH   LINE      CODE     ---       #56
      00FF365FH   LINE      CODE     ---       #57
      00FF3662H   LINE      CODE     ---       #58
      00FF3664H   LINE      CODE     ---       #59
      00FF3665H   LINE      CODE     ---       #62
      00FF3665H   LINE      CODE     ---       #64
      00FF3668H   LINE      CODE     ---       #65
      00FF366BH   LINE      CODE     ---       #66
      00FF366EH   LINE      CODE     ---       #67
      00FF366FH   LINE      CODE     ---       #70
      00FF366FH   LINE      CODE     ---       #72
      00FF3672H   LINE      CODE     ---       #73
      00FF3675H   LINE      CODE     ---       #74
      00FF3678H   LINE      CODE     ---       #75
      00FF3679H   LINE      CODE     ---       #78
      00FF3679H   LINE      CODE     ---       #80
      00FF367CH   LINE      CODE     ---       #81
      00FF367FH   LINE      CODE     ---       #82
      00FF3682H   LINE      CODE     ---       #83
      00FF3682H   LINE      CODE     ---       #86
      00FF3682H   LINE      CODE     ---       #87
      ---         BLOCKEND  ---      ---       LVL=0

      00FF35ECH   BLOCK     CODE     ---       LVL=0
      WR4         REGSYM    ---      INT       tim_n
      00FF35EEH   BLOCK     CODE     NEAR LAB  LVL=1
      WR6         REGSYM    ---      WORD      dat
      ---         BLOCKEND  ---      ---       LVL=1
      00FF35ECH   LINE      CODE     ---       #95
      00FF35EEH   LINE      CODE     ---       #96
      00FF35EEH   LINE      CODE     ---       #97
      00FF35F0H   LINE      CODE     ---       #99
      00FF3604H   LINE      CODE     ---       #101
      00FF3604H   LINE      CODE     ---       #103
      00FF360AH   LINE      CODE     ---       #104
      00FF360CH   LINE      CODE     ---       #105
      00FF360EH   LINE      CODE     ---       #107
      00FF360EH   LINE      CODE     ---       #109
      00FF3614H   LINE      CODE     ---       #110
      00FF3616H   LINE      CODE     ---       #111
      00FF3618H   LINE      CODE     ---       #113
      00FF3618H   LINE      CODE     ---       #115
      00FF361EH   LINE      CODE     ---       #116
      00FF3620H   LINE      CODE     ---       #117
      00FF3622H   LINE      CODE     ---       #119
      00FF3622H   LINE      CODE     ---       #121
      00FF3628H   LINE      CODE     ---       #122
      00FF362AH   LINE      CODE     ---       #123
      00FF362CH   LINE      CODE     ---       #125
      00FF362CH   LINE      CODE     ---       #127
      00FF3632H   LINE      CODE     ---       #128
      00FF3638H   LINE      CODE     ---       #129
      00FF3638H   LINE      CODE     ---       #132
      00FF3638H   LINE      CODE     ---       #133
      00FF3638H   LINE      CODE     ---       #134
      ---         BLOCKEND  ---      ---       LVL=0

      00FF34FDH   BLOCK     CODE     ---       LVL=0
      WR6         REGSYM    ---      INT       tim_n
      00FF34FDH   LINE      CODE     ---       #143
      00FF34FDH   LINE      CODE     ---       #145
      00FF3511H   LINE      CODE     ---       #147
      00FF3511H   LINE      CODE     ---       #149
      00FF3513H   LINE      CODE     ---       #150
L251 LINKER/LOCATER V4.66.93.0                                                        04/10/2023  09:21:47  PAGE 41


      00FF3516H   LINE      CODE     ---       #151
      00FF3519H   LINE      CODE     ---       #152
      00FF351BH   LINE      CODE     ---       #153
      00FF351CH   LINE      CODE     ---       #155
      00FF351CH   LINE      CODE     ---       #157
      00FF351EH   LINE      CODE     ---       #158
      00FF3521H   LINE      CODE     ---       #159
      00FF3524H   LINE      CODE     ---       #160
      00FF3526H   LINE      CODE     ---       #161
      00FF3527H   LINE      CODE     ---       #163
      00FF3527H   LINE      CODE     ---       #165
      00FF352AH   LINE      CODE     ---       #166
      00FF352DH   LINE      CODE     ---       #167
      00FF3530H   LINE      CODE     ---       #168
      00FF3533H   LINE      CODE     ---       #169
      00FF3534H   LINE      CODE     ---       #171
      00FF3534H   LINE      CODE     ---       #173
      00FF3537H   LINE      CODE     ---       #174
      00FF353AH   LINE      CODE     ---       #175
      00FF353DH   LINE      CODE     ---       #176
      00FF3540H   LINE      CODE     ---       #177
      00FF3541H   LINE      CODE     ---       #179
      00FF3541H   LINE      CODE     ---       #181
      00FF3544H   LINE      CODE     ---       #182
      00FF3547H   LINE      CODE     ---       #183
      00FF354AH   LINE      CODE     ---       #184
      00FF354DH   LINE      CODE     ---       #185
      00FF354DH   LINE      CODE     ---       #187
      00FF354DH   LINE      CODE     ---       #188
      ---         BLOCKEND  ---      ---       LVL=0

      00FF3079H   BLOCK     CODE     ---       LVL=0
      WR30        REGSYM    ---      INT       tim_n
      WR28        REGSYM    ---      WORD      time_ms
      00FF307BH   BLOCK     CODE     NEAR LAB  LVL=1
      WR28        REGSYM    ---      WORD      temp
      ---         BLOCKEND  ---      ---       LVL=1
      00FF3079H   LINE      CODE     ---       #198
      00FF307BH   LINE      CODE     ---       #199
      00FF307BH   LINE      CODE     ---       #201
      00FF3098H   LINE      CODE     ---       #203
      00FF309CH   LINE      CODE     ---       #205
      00FF30A0H   LINE      CODE     ---       #206
      00FF30A6H   LINE      CODE     ---       #207
      00FF30AAH   LINE      CODE     ---       #208
      00FF30ACH   LINE      CODE     ---       #209
      00FF30AEH   LINE      CODE     ---       #210
      00FF30AFH   LINE      CODE     ---       #211
      00FF30B5H   LINE      CODE     ---       #213
      00FF30B9H   LINE      CODE     ---       #214
      00FF30BFH   LINE      CODE     ---       #215
      00FF30C3H   LINE      CODE     ---       #216
      00FF30C5H   LINE      CODE     ---       #217
      00FF30C7H   LINE      CODE     ---       #218
      00FF30C8H   LINE      CODE     ---       #219
      00FF30CEH   LINE      CODE     ---       #221
      00FF30D4H   LINE      CODE     ---       #222
      00FF30D8H   LINE      CODE     ---       #223
      00FF30DBH   LINE      CODE     ---       #224
      00FF30DEH   LINE      CODE     ---       #225
      00FF30DFH   LINE      CODE     ---       #226
      00FF30E5H   LINE      CODE     ---       #228
      00FF30EBH   LINE      CODE     ---       #229
      00FF30EFH   LINE      CODE     ---       #230
      00FF30F2H   LINE      CODE     ---       #231
L251 LINKER/LOCATER V4.66.93.0                                                        04/10/2023  09:21:47  PAGE 42


      00FF30F5H   LINE      CODE     ---       #232
      00FF30F6H   LINE      CODE     ---       #233
      00FF30FCH   LINE      CODE     ---       #235
      00FF3102H   LINE      CODE     ---       #236
      00FF3106H   LINE      CODE     ---       #237
      00FF3109H   LINE      CODE     ---       #238
      00FF310CH   LINE      CODE     ---       #239
      ---         BLOCKEND  ---      ---       LVL=0

      ---         MODULE    ---      ---       zf_uart
      00FF24DBH   PUBLIC    CODE     ---       uart_init
      00000109H   PUBLIC    EDATA    ---       uart1_rx_buff
      0000016DH   PUBLIC    EDATA    ---       uart1_tx_buff
      000001D1H   PUBLIC    EDATA    ---       busy
      000002CDH   PUBLIC    EDATA    BYTE      ?uart_init?BYTE
      000000D0H   SFRSYM    DATA     BYTE      PSW
      000000BCH   SFRSYM    DATA     BYTE      S4CON
      000000E5H   SFRSYM    DATA     BYTE      S3CON
      000000E3H   SFRSYM    DATA     BYTE      S2CON
      000000BDH   SFRSYM    DATA     BYTE      S4BUF
      000000E6H   SFRSYM    DATA     BYTE      S3BUF
      000000E4H   SFRSYM    DATA     BYTE      S2BUF
      000000DBH   SFRSYM    DATA     BYTE      T4T3M
      00000088H.6 SFRSYM    DATA     BIT       TR1
      000000CAH   SFRSYM    DATA     BYTE      T4L
      000000CCH   SFRSYM    DATA     BYTE      T3L
      000000CEH   SFRSYM    DATA     BYTE      T2L
      0000008BH   SFRSYM    DATA     BYTE      TL1
      000000C9H   SFRSYM    DATA     BYTE      T4H
      000000CBH   SFRSYM    DATA     BYTE      T3H
      000000CDH   SFRSYM    DATA     BYTE      T2H
      0000008DH   SFRSYM    DATA     BYTE      TH1
      00000093H   SFRSYM    DATA     BYTE      AUXR
      000000E7H   SFRSYM    DATA     BYTE      IE2
      00000088H   SFRSYM    DATA     BYTE      TCON
      00000089H   SFRSYM    DATA     BYTE      TMOD
      00000098H   SFRSYM    DATA     BYTE      SCON
      00000099H   SFRSYM    DATA     BYTE      SBUF
      000000B8H   SFRSYM    DATA     BYTE      IP
      000000A8H.4 SFRSYM    DATA     BIT       ES
      000000A8H   SFRSYM    DATA     BYTE      IE
      0000009BH   SFRSYM    DATA     BYTE      P_SW2
      0000009AH   SFRSYM    DATA     BYTE      P_SW1
      000000F8H   SFRSYM    DATA     BYTE      P7
      000000E8H   SFRSYM    DATA     BYTE      P6
      000000C8H   SFRSYM    DATA     BYTE      P5
      000000C0H   SFRSYM    DATA     BYTE      P4
      000000ECH   SFRSYM    DATA     BYTE      P5M1
      000000B0H   SFRSYM    DATA     BYTE      P3
      000000EDH   SFRSYM    DATA     BYTE      P5M0
      000000A0H   SFRSYM    DATA     BYTE      P2
      00000090H   SFRSYM    DATA     BYTE      P1
      00000080H   SFRSYM    DATA     BYTE      P0
      00FF4040H   SYMBOL    HCONST   ---       ?tpl?0001

      00FF24DBH   BLOCK     CODE     ---       LVL=0
      WR24        REGSYM    ---      INT       uart_n
      WR28        REGSYM    ---      INT       uart_rx_pin
      WR30        REGSYM    ---      INT       uart_tx_pin
      000002D3H   SYMBOL    EDATA    DWORD     baud
      WR26        REGSYM    ---      INT       tim_n
      00FF24E3H   BLOCK     CODE     NEAR LAB  LVL=1
      WR6         REGSYM    ---      WORD      brt
      ---         BLOCKEND  ---      ---       LVL=1
      00FF24DBH   LINE      CODE     ---       #48
L251 LINKER/LOCATER V4.66.93.0                                                        04/10/2023  09:21:47  PAGE 43


      00FF24E3H   LINE      CODE     ---       #49
      00FF24E3H   LINE      CODE     ---       #52
      00FF2506H   LINE      CODE     ---       #55
      00FF2524H   LINE      CODE     ---       #57
      00FF2524H   LINE      CODE     ---       #59
      00FF252AH   LINE      CODE     ---       #61
      00FF252DH   LINE      CODE     ---       #62
      00FF2531H   LINE      CODE     ---       #63
      00FF2535H   LINE      CODE     ---       #64
      00FF2539H   LINE      CODE     ---       #65
      00FF253CH   LINE      CODE     ---       #66
      00FF253EH   LINE      CODE     ---       #67
      00FF2543H   LINE      CODE     ---       #68
      00FF2545H   LINE      CODE     ---       #69
      00FF254BH   LINE      CODE     ---       #71
      00FF254EH   LINE      CODE     ---       #72
      00FF2552H   LINE      CODE     ---       #73
      00FF2556H   LINE      CODE     ---       #74
      00FF2559H   LINE      CODE     ---       #75
      00FF2559H   LINE      CODE     ---       #76
      00FF255CH   LINE      CODE     ---       #77
      00FF2566H   LINE      CODE     ---       #79
      00FF256AH   LINE      CODE     ---       #80
      00FF256CH   LINE      CODE     ---       #81
      00FF2578H   LINE      CODE     ---       #83
      00FF257BH   LINE      CODE     ---       #84
      00FF257DH   LINE      CODE     ---       #85
      00FF2589H   LINE      CODE     ---       #87
      00FF258CH   LINE      CODE     ---       #88
      00FF258EH   LINE      CODE     ---       #89
      00FF259AH   LINE      CODE     ---       #91
      00FF259DH   LINE      CODE     ---       #92
      00FF259DH   LINE      CODE     ---       #93
      00FF25A2H   LINE      CODE     ---       #94
      00FF25A4H   LINE      CODE     ---       #95
      00FF25A5H   LINE      CODE     ---       #98
      00FF25A5H   LINE      CODE     ---       #100
      00FF25ABH   LINE      CODE     ---       #102
      00FF25AEH   LINE      CODE     ---       #103
      00FF25B2H   LINE      CODE     ---       #104
      00FF25B6H   LINE      CODE     ---       #105
      00FF25B9H   LINE      CODE     ---       #106
      00FF25B9H   LINE      CODE     ---       #108
      00FF25BCH   LINE      CODE     ---       #109
      00FF25C8H   LINE      CODE     ---       #111
      00FF25CCH   LINE      CODE     ---       #112
      00FF25CEH   LINE      CODE     ---       #113
      00FF25DAH   LINE      CODE     ---       #115
      00FF25DDH   LINE      CODE     ---       #116
      00FF25DDH   LINE      CODE     ---       #118
      00FF25E0H   LINE      CODE     ---       #119
      00FF25E5H   LINE      CODE     ---       #120
      00FF25E6H   LINE      CODE     ---       #123
      00FF25E6H   LINE      CODE     ---       #125
      00FF25ECH   LINE      CODE     ---       #127
      00FF25EFH   LINE      CODE     ---       #128
      00FF25F3H   LINE      CODE     ---       #129
      00FF25F7H   LINE      CODE     ---       #130
      00FF25FAH   LINE      CODE     ---       #131
      00FF25FCH   LINE      CODE     ---       #132
      00FF2602H   LINE      CODE     ---       #134
      00FF2605H   LINE      CODE     ---       #135
      00FF2609H   LINE      CODE     ---       #136
      00FF260DH   LINE      CODE     ---       #137
      00FF2610H   LINE      CODE     ---       #138
L251 LINKER/LOCATER V4.66.93.0                                                        04/10/2023  09:21:47  PAGE 44


      00FF2610H   LINE      CODE     ---       #140
      00FF2613H   LINE      CODE     ---       #141
      00FF261FH   LINE      CODE     ---       #143
      00FF2623H   LINE      CODE     ---       #144
      00FF2625H   LINE      CODE     ---       #145
      00FF2631H   LINE      CODE     ---       #147
      00FF2634H   LINE      CODE     ---       #148
      00FF2634H   LINE      CODE     ---       #150
      00FF2637H   LINE      CODE     ---       #151
      00FF263CH   LINE      CODE     ---       #152
      00FF263DH   LINE      CODE     ---       #155
      00FF263DH   LINE      CODE     ---       #157
      00FF2643H   LINE      CODE     ---       #159
      00FF2646H   LINE      CODE     ---       #160
      00FF264AH   LINE      CODE     ---       #161
      00FF264EH   LINE      CODE     ---       #162
      00FF2651H   LINE      CODE     ---       #163
      00FF2653H   LINE      CODE     ---       #164
      00FF2659H   LINE      CODE     ---       #166
      00FF265CH   LINE      CODE     ---       #167
      00FF2660H   LINE      CODE     ---       #168
      00FF2664H   LINE      CODE     ---       #169
      00FF2667H   LINE      CODE     ---       #170
      00FF2667H   LINE      CODE     ---       #172
      00FF266AH   LINE      CODE     ---       #173
      00FF2676H   LINE      CODE     ---       #175
      00FF267AH   LINE      CODE     ---       #176
      00FF267CH   LINE      CODE     ---       #177
      00FF2688H   LINE      CODE     ---       #179
      00FF268BH   LINE      CODE     ---       #180
      00FF268EH   LINE      CODE     ---       #181
      00FF2691H   LINE      CODE     ---       #182
      00FF2691H   LINE      CODE     ---       #183
      00FF2694H   LINE      CODE     ---       #184
      00FF2699H   LINE      CODE     ---       #185
      00FF2699H   LINE      CODE     ---       #188
      00FF2699H   LINE      CODE     ---       #190
      ---         BLOCKEND  ---      ---       LVL=0
      WR6         REGSYM    ---      INT       uart_n
      R10         REGSYM    ---      BYTE      dat
      REG=3       REGSYM    ---      ---       p
      REG=3       REGSYM    ---      ---       str
      WR14        REGSYM    ---      INT       uratn
      REG=7       REGSYM    ---      ---       pst
      R10         REGSYM    ---      BYTE      sum
      R12         REGSYM    ---      BYTE      i

      ---         MODULE    ---      ---       SEEKFREE_18TFT
      00FF391FH   PUBLIC    CODE     ---       lcd_clear
      00FF359EH   PUBLIC    CODE     ---       lcd_showstr
      00FF3A84H   PUBLIC    CODE     ---       lcd_writeIndex
      00FF3A8EH   PUBLIC    CODE     ---       lcd_writeData
      00FF354EH   PUBLIC    CODE     ---       lcd_set_region
      00FF22EDH   PUBLIC    CODE     ---       lcd_init
      00FF39D9H   PUBLIC    CODE     ---       lcd_writedata_16bit
      00FF322CH   PUBLIC    CODE     ---       lcd_showchar
      000000D0H   SFRSYM    DATA     BYTE      PSW
      000000A0H.5 SFRSYM    DATA     BIT       P25
      00000088H   SFRSYM    DATA     BYTE      TCON
      000000A0H.3 SFRSYM    DATA     BIT       P23
      00000098H   SFRSYM    DATA     BYTE      SCON
      000000A0H.2 SFRSYM    DATA     BIT       P22
      000000A0H.1 SFRSYM    DATA     BIT       P21
      000000A0H.0 SFRSYM    DATA     BIT       P20
      000000B8H   SFRSYM    DATA     BYTE      IP
L251 LINKER/LOCATER V4.66.93.0                                                        04/10/2023  09:21:47  PAGE 45


      000000A8H   SFRSYM    DATA     BYTE      IE
      000000F8H   SFRSYM    DATA     BYTE      P7
      000000E8H   SFRSYM    DATA     BYTE      P6
      000000C8H   SFRSYM    DATA     BYTE      P5
      000000C0H   SFRSYM    DATA     BYTE      P4
      000000B0H   SFRSYM    DATA     BYTE      P3
      000000A0H   SFRSYM    DATA     BYTE      P2
      00000090H   SFRSYM    DATA     BYTE      P1
      00000080H   SFRSYM    DATA     BYTE      P0
      R7          REGSYM    ---      BYTE      dat
      R6          REGSYM    ---      BYTE      i
      R7          REGSYM    ---      BYTE      dat
      R6          REGSYM    ---      BYTE      i
      WR4         REGSYM    ---      WORD      dat
      R10         REGSYM    ---      BYTE      i
      WR12        REGSYM    ---      WORD      x_end
      WR14        REGSYM    ---      WORD      y_end
      WR14        REGSYM    ---      INT       color
      R13         REGSYM    ---      BYTE      i
      R12         REGSYM    ---      BYTE      j
      WR2         REGSYM    ---      WORD      x
      WR0         REGSYM    ---      WORD      y
      WR14        REGSYM    ---      WORD      color
      WR12        REGSYM    ---      WORD      x
      WR14        REGSYM    ---      WORD      y
      REG=3       REGSYM    ---      ---       dat
      WR12        REGSYM    ---      WORD      x
      WR14        REGSYM    ---      WORD      y
      WR12        REGSYM    ---      WORD      x
      WR14        REGSYM    ---      WORD      y
      R10         REGSYM    ---      BYTE      dat
      WR12        REGSYM    ---      WORD      x
      WR14        REGSYM    ---      WORD      y
      WR12        REGSYM    ---      WORD      x
      WR14        REGSYM    ---      WORD      y
      WR2         REGSYM    ---      WORD      dat
      WR12        REGSYM    ---      WORD      y
      R15         REGSYM    ---      BYTE      num
      R14         REGSYM    ---      BYTE      length
      DR12        REGSYM    ---      FLOAT     dat
      R7          REGSYM    ---      CHAR      point

      00FF3A84H   BLOCK     CODE     ---       LVL=0
      R7          REGSYM    ---      BYTE      dat
      00FF3A84H   LINE      CODE     ---       #606
      00FF3A84H   LINE      CODE     ---       #609
      00FF3A86H   LINE      CODE     ---       #610
      00FF3A88H   LINE      CODE     ---       #611
      00FF3A8BH   LINE      CODE     ---       #612
      00FF3A8DH   LINE      CODE     ---       #613
      ---         BLOCKEND  ---      ---       LVL=0

      00FF3A8EH   BLOCK     CODE     ---       LVL=0
      R7          REGSYM    ---      BYTE      dat
      00FF3A8EH   LINE      CODE     ---       #622
      00FF3A8EH   LINE      CODE     ---       #624
      00FF3A90H   LINE      CODE     ---       #625
      00FF3A92H   LINE      CODE     ---       #626
      00FF3A95H   LINE      CODE     ---       #627
      00FF3A97H   LINE      CODE     ---       #628
      ---         BLOCKEND  ---      ---       LVL=0

      00FF39D9H   BLOCK     CODE     ---       LVL=0
      WR4         REGSYM    ---      WORD      dat
      00FF39DBH   BLOCK     CODE     NEAR LAB  LVL=1
L251 LINKER/LOCATER V4.66.93.0                                                        04/10/2023  09:21:47  PAGE 46


      000002DDH   SYMBOL    EDATA    ---       dat1
      ---         BLOCKEND  ---      ---       LVL=1
      00FF39D9H   LINE      CODE     ---       #637
      00FF39DBH   LINE      CODE     ---       #638
      00FF39DBH   LINE      CODE     ---       #641
      00FF39DFH   LINE      CODE     ---       #642
      00FF39E3H   LINE      CODE     ---       #644
      00FF39E5H   LINE      CODE     ---       #645
      00FF39E7H   LINE      CODE     ---       #646
      00FF39EEH   LINE      CODE     ---       #647
      00FF39F5H   LINE      CODE     ---       #648
      00FF39F7H   LINE      CODE     ---       #650
      ---         BLOCKEND  ---      ---       LVL=0

      00FF354EH   BLOCK     CODE     ---       LVL=0
      000002DDH   SYMBOL    EDATA    WORD      x_start
      000002DFH   SYMBOL    EDATA    WORD      y_start
      WR12        REGSYM    ---      WORD      x_end
      WR14        REGSYM    ---      WORD      y_end
      00FF354EH   LINE      CODE     ---       #662
      00FF355CH   LINE      CODE     ---       #667
      00FF3561H   LINE      CODE     ---       #668
      00FF3565H   LINE      CODE     ---       #669
      00FF356EH   LINE      CODE     ---       #670
      00FF3572H   LINE      CODE     ---       #671
      00FF3579H   LINE      CODE     ---       #673
      00FF357EH   LINE      CODE     ---       #674
      00FF3582H   LINE      CODE     ---       #675
      00FF358BH   LINE      CODE     ---       #676
      00FF358FH   LINE      CODE     ---       #677
      00FF3596H   LINE      CODE     ---       #694
      00FF359BH   LINE      CODE     ---       #695
      ---         BLOCKEND  ---      ---       LVL=0

      00FF391FH   BLOCK     CODE     ---       LVL=0
      WR14        REGSYM    ---      INT       color
      00FF3923H   BLOCK     CODE     NEAR LAB  LVL=1
      R13         REGSYM    ---      BYTE      i
      R12         REGSYM    ---      BYTE      j
      ---         BLOCKEND  ---      ---       LVL=1
      00FF391FH   LINE      CODE     ---       #704
      00FF3923H   LINE      CODE     ---       #705
      00FF3923H   LINE      CODE     ---       #707
      00FF3932H   LINE      CODE     ---       #708
      00FF3935H   LINE      CODE     ---       #709
      00FF3937H   LINE      CODE     ---       #710
      00FF3947H   LINE      CODE     ---       #711
      ---         BLOCKEND  ---      ---       LVL=0

      00FF22EDH   BLOCK     CODE     ---       LVL=0
      00FF22EDH   LINE      CODE     ---       #720
      00FF22EDH   LINE      CODE     ---       #722
      00FF230BH   LINE      CODE     ---       #724
      00FF230DH   LINE      CODE     ---       #725
      00FF2314H   LINE      CODE     ---       #726
      00FF2316H   LINE      CODE     ---       #727
      00FF231DH   LINE      CODE     ---       #728
      00FF2322H   LINE      CODE     ---       #729
      00FF2329H   LINE      CODE     ---       #731
      00FF232EH   LINE      CODE     ---       #732
      00FF2333H   LINE      CODE     ---       #733
      00FF2338H   LINE      CODE     ---       #734
      00FF233DH   LINE      CODE     ---       #736
      00FF2342H   LINE      CODE     ---       #737
      00FF2347H   LINE      CODE     ---       #738
L251 LINKER/LOCATER V4.66.93.0                                                        04/10/2023  09:21:47  PAGE 47


      00FF234CH   LINE      CODE     ---       #739
      00FF2351H   LINE      CODE     ---       #741
      00FF2356H   LINE      CODE     ---       #742
      00FF235BH   LINE      CODE     ---       #743
      00FF2360H   LINE      CODE     ---       #744
      00FF2365H   LINE      CODE     ---       #745
      00FF236AH   LINE      CODE     ---       #746
      00FF236FH   LINE      CODE     ---       #747
      00FF2374H   LINE      CODE     ---       #749
      00FF2379H   LINE      CODE     ---       #750
      00FF237EH   LINE      CODE     ---       #752
      00FF2383H   LINE      CODE     ---       #753
      00FF2388H   LINE      CODE     ---       #754
      00FF238DH   LINE      CODE     ---       #755
      00FF2392H   LINE      CODE     ---       #756
      00FF2397H   LINE      CODE     ---       #757
      00FF239CH   LINE      CODE     ---       #759
      00FF23A1H   LINE      CODE     ---       #760
      00FF23A6H   LINE      CODE     ---       #761
      00FF23AAH   LINE      CODE     ---       #763
      00FF23AFH   LINE      CODE     ---       #764
      00FF23B4H   LINE      CODE     ---       #765
      00FF23B9H   LINE      CODE     ---       #766
      00FF23BEH   LINE      CODE     ---       #767
      00FF23C3H   LINE      CODE     ---       #768
      00FF23C8H   LINE      CODE     ---       #770
      00FF23CDH   LINE      CODE     ---       #771
      00FF23D2H   LINE      CODE     ---       #773
      00FF23D7H   LINE      CODE     ---       #776
      00FF23DCH   LINE      CODE     ---       #785
      00FF23E1H   LINE      CODE     ---       #786
      00FF23E6H   LINE      CODE     ---       #787
      00FF23EBH   LINE      CODE     ---       #788
      00FF23F0H   LINE      CODE     ---       #789
      00FF23F5H   LINE      CODE     ---       #790
      00FF23FAH   LINE      CODE     ---       #791
      00FF23FFH   LINE      CODE     ---       #792
      00FF2404H   LINE      CODE     ---       #793
      00FF2409H   LINE      CODE     ---       #794
      00FF240EH   LINE      CODE     ---       #795
      00FF2413H   LINE      CODE     ---       #796
      00FF2418H   LINE      CODE     ---       #797
      00FF241DH   LINE      CODE     ---       #798
      00FF2421H   LINE      CODE     ---       #799
      00FF2426H   LINE      CODE     ---       #800
      00FF242BH   LINE      CODE     ---       #801
      00FF2430H   LINE      CODE     ---       #803
      00FF2435H   LINE      CODE     ---       #804
      00FF243AH   LINE      CODE     ---       #805
      00FF243FH   LINE      CODE     ---       #806
      00FF2444H   LINE      CODE     ---       #807
      00FF2449H   LINE      CODE     ---       #808
      00FF244EH   LINE      CODE     ---       #809
      00FF2453H   LINE      CODE     ---       #810
      00FF2458H   LINE      CODE     ---       #811
      00FF245DH   LINE      CODE     ---       #812
      00FF2462H   LINE      CODE     ---       #813
      00FF2467H   LINE      CODE     ---       #814
      00FF246CH   LINE      CODE     ---       #815
      00FF2471H   LINE      CODE     ---       #816
      00FF2475H   LINE      CODE     ---       #817
      00FF247AH   LINE      CODE     ---       #818
      00FF247FH   LINE      CODE     ---       #819
      00FF2484H   LINE      CODE     ---       #821
      00FF2489H   LINE      CODE     ---       #822
L251 LINKER/LOCATER V4.66.93.0                                                        04/10/2023  09:21:47  PAGE 48


      00FF248DH   LINE      CODE     ---       #823
      00FF2492H   LINE      CODE     ---       #824
      00FF2496H   LINE      CODE     ---       #825
      00FF249BH   LINE      CODE     ---       #827
      00FF24A0H   LINE      CODE     ---       #828
      00FF24A4H   LINE      CODE     ---       #829
      00FF24A9H   LINE      CODE     ---       #830
      00FF24ADH   LINE      CODE     ---       #831
      00FF24B2H   LINE      CODE     ---       #833
      00FF24B7H   LINE      CODE     ---       #834
      00FF24BCH   LINE      CODE     ---       #835
      00FF24C1H   LINE      CODE     ---       #836
      00FF24C5H   LINE      CODE     ---       #838
      00FF24CAH   LINE      CODE     ---       #839
      00FF24CFH   LINE      CODE     ---       #840
      00FF24D4H   LINE      CODE     ---       #842
      ---         BLOCKEND  ---      ---       LVL=0
      WR2         REGSYM    ---      WORD      x
      WR0         REGSYM    ---      WORD      y
      WR14        REGSYM    ---      WORD      color

      00FF322CH   BLOCK     CODE     ---       LVL=0
      WR12        REGSYM    ---      WORD      x
      WR14        REGSYM    ---      WORD      y
      000002D9H   SYMBOL    EDATA    CHAR      dat
      00FF3236H   BLOCK     CODE     NEAR LAB  LVL=1
      000002DAH   SYMBOL    EDATA    BYTE      i
      000002DBH   SYMBOL    EDATA    BYTE      j
      000002DCH   SYMBOL    EDATA    BYTE      temp
      ---         BLOCKEND  ---      ---       LVL=1
      00FF322CH   LINE      CODE     ---       #871
      00FF3236H   LINE      CODE     ---       #872
      00FF3236H   LINE      CODE     ---       #876
      00FF323BH   LINE      CODE     ---       #878
      00FF3250H   LINE      CODE     ---       #879
      00FF3276H   LINE      CODE     ---       #880
      00FF327BH   LINE      CODE     ---       #882
      00FF3288H   LINE      CODE     ---       #883
      00FF328FH   LINE      CODE     ---       #884
      00FF3299H   LINE      CODE     ---       #885
      00FF32A5H   LINE      CODE     ---       #886
      00FF32B7H   LINE      CODE     ---       #887
      ---         BLOCKEND  ---      ---       LVL=0

      00FF359EH   BLOCK     CODE     ---       LVL=0
      000002D3H   SYMBOL    EDATA    WORD      x
      000002D5H   SYMBOL    EDATA    WORD      y
      REG=3       REGSYM    ---      ---       dat
      00FF35AAH   BLOCK     CODE     NEAR LAB  LVL=1
      000002D7H   SYMBOL    EDATA    WORD      j
      ---         BLOCKEND  ---      ---       LVL=1
      00FF359EH   LINE      CODE     ---       #898
      00FF35AAH   LINE      CODE     ---       #899
      00FF35AAH   LINE      CODE     ---       #902
      00FF35ACH   LINE      CODE     ---       #903
      00FF35AEH   LINE      CODE     ---       #905
      00FF35D4H   LINE      CODE     ---       #906
      00FF35DEH   LINE      CODE     ---       #907
      00FF35E9H   LINE      CODE     ---       #908
      ---         BLOCKEND  ---      ---       LVL=0
      WR12        REGSYM    ---      WORD      x
      WR14        REGSYM    ---      WORD      y
      WR12        REGSYM    ---      WORD      x
      WR14        REGSYM    ---      WORD      y
      R10         REGSYM    ---      BYTE      dat
L251 LINKER/LOCATER V4.66.93.0                                                        04/10/2023  09:21:47  PAGE 49


      WR12        REGSYM    ---      WORD      x
      WR14        REGSYM    ---      WORD      y
      WR12        REGSYM    ---      WORD      x
      WR14        REGSYM    ---      WORD      y
      WR2         REGSYM    ---      WORD      dat
      WR12        REGSYM    ---      WORD      y
      R15         REGSYM    ---      BYTE      num
      R14         REGSYM    ---      BYTE      length
      DR12        REGSYM    ---      FLOAT     dat
      R7          REGSYM    ---      CHAR      point
      REG=3       REGSYM    ---      ---       p

      ---         MODULE    ---      ---       SEEKFREE_ABSOLUTE_ENCODER
      000000D0H   SFRSYM    DATA     BYTE      PSW
      000000A0H.7 SFRSYM    DATA     BIT       P27
      000000A0H.6 SFRSYM    DATA     BIT       P26
      000000A0H.5 SFRSYM    DATA     BIT       P25
      000000A0H.4 SFRSYM    DATA     BIT       P24
      00000088H   SFRSYM    DATA     BYTE      TCON
      00000098H   SFRSYM    DATA     BYTE      SCON
      000000A0H.2 SFRSYM    DATA     BIT       P22
      000000B8H   SFRSYM    DATA     BYTE      IP
      000000A8H   SFRSYM    DATA     BYTE      IE
      000000F8H   SFRSYM    DATA     BYTE      P7
      000000E8H   SFRSYM    DATA     BYTE      P6
      000000C8H   SFRSYM    DATA     BYTE      P5
      000000C0H   SFRSYM    DATA     BYTE      P4
      000000B0H   SFRSYM    DATA     BYTE      P3
      000000A0H   SFRSYM    DATA     BYTE      P2
      00000090H   SFRSYM    DATA     BYTE      P1
      00000080H   SFRSYM    DATA     BYTE      P0
      WR6         REGSYM    ---      WORD      x
      R6          REGSYM    ---      BYTE      byte
      R7          REGSYM    ---      BYTE      i
      R7          REGSYM    ---      BYTE      cmd
      R15         REGSYM    ---      BYTE      val
      R7          REGSYM    ---      BYTE      cmd
      REG=3       REGSYM    ---      ---       val
      R7          REGSYM    ---      BYTE      cmd
      R15         REGSYM    ---      BYTE      val
      R14         REGSYM    ---      BYTE      dat
      R7          REGSYM    ---      BYTE      cmd
      REG=3       REGSYM    ---      ---       val
      WR14        REGSYM    ---      WORD      zero_position
      WR14        REGSYM    ---      WORD      angle
      R10         REGSYM    ---      BYTE      byte
      R7          REGSYM    ---      BYTE      cmd
      R15         REGSYM    ---      BYTE      val
      R7          REGSYM    ---      BYTE      cmd
      REG=3       REGSYM    ---      ---       val
      R7          REGSYM    ---      BYTE      cmd
      R15         REGSYM    ---      BYTE      val
      R14         REGSYM    ---      BYTE      dat
      R7          REGSYM    ---      BYTE      cmd
      REG=3       REGSYM    ---      ---       val
      WR14        REGSYM    ---      WORD      zero_position
      WR14        REGSYM    ---      WORD      angle

      ---         MODULE    ---      ---       SEEKFREE_FONT
      00FF3D0CH   PUBLIC    HCONST   ---       F14x16
      00FF3E5CH   PUBLIC    HCONST   ---       F14x16_Idx
      00FF00A6H   PUBLIC    CODE     ---       oled_8x16
      00FF0696H   PUBLIC    CODE     ---       tft_ascii
      00FF0C86H   PUBLIC    CODE     ---       oled_6x8
      000000D0H   SFRSYM    DATA     BYTE      PSW
L251 LINKER/LOCATER V4.66.93.0                                                        04/10/2023  09:21:47  PAGE 50


      00000088H   SFRSYM    DATA     BYTE      TCON
      00000098H   SFRSYM    DATA     BYTE      SCON
      000000B8H   SFRSYM    DATA     BYTE      IP
      000000A8H   SFRSYM    DATA     BYTE      IE
      000000F8H   SFRSYM    DATA     BYTE      P7
      000000E8H   SFRSYM    DATA     BYTE      P6
      000000C8H   SFRSYM    DATA     BYTE      P5
      000000C0H   SFRSYM    DATA     BYTE      P4
      000000B0H   SFRSYM    DATA     BYTE      P3
      000000A0H   SFRSYM    DATA     BYTE      P2
      00000090H   SFRSYM    DATA     BYTE      P1
      00000080H   SFRSYM    DATA     BYTE      P0

      ---         MODULE    ---      ---       SEEKFREE_ICM20602
      000003B8H   PUBLIC    EDATA    INT       icm_acc_x
      000003BAH   PUBLIC    EDATA    INT       icm_acc_y
      000003BCH   PUBLIC    EDATA    INT       icm_acc_z
      000003BEH   PUBLIC    EDATA    INT       icm_gyro_x
      000003C0H   PUBLIC    EDATA    INT       icm_gyro_y
      000003C2H   PUBLIC    EDATA    INT       icm_gyro_z
      000000D0H   SFRSYM    DATA     BYTE      PSW
      000000C0H.3 SFRSYM    DATA     BIT       P43
      000000C8H.2 SFRSYM    DATA     BIT       P52
      000000C0H.2 SFRSYM    DATA     BIT       P42
      00000088H   SFRSYM    DATA     BYTE      TCON
      000000C0H.1 SFRSYM    DATA     BIT       P41
      00000098H   SFRSYM    DATA     BYTE      SCON
      000000C0H.0 SFRSYM    DATA     BIT       P40
      000000B8H   SFRSYM    DATA     BYTE      IP
      000000A8H   SFRSYM    DATA     BYTE      IE
      000000F8H   SFRSYM    DATA     BYTE      P7
      000000E8H   SFRSYM    DATA     BYTE      P6
      000000C8H   SFRSYM    DATA     BYTE      P5
      000000C0H   SFRSYM    DATA     BYTE      P4
      000000B0H   SFRSYM    DATA     BYTE      P3
      000000A0H   SFRSYM    DATA     BYTE      P2
      00000090H   SFRSYM    DATA     BYTE      P1
      00000080H   SFRSYM    DATA     BYTE      P0
      R15         REGSYM    ---      BYTE      dat
      R6          REGSYM    ---      BYTE      byte
      R7          REGSYM    ---      BYTE      i
      R7          REGSYM    ---      BYTE      cmd
      R15         REGSYM    ---      BYTE      val
      R7          REGSYM    ---      BYTE      cmd
      REG=3       REGSYM    ---      ---       val
      R7          REGSYM    ---      BYTE      cmd
      REG=3       REGSYM    ---      ---       val

      ---         MODULE    ---      ---       SEEKFREE_IIC
      000003EDH   PUBLIC    EDATA    BYTE      IIC_ad_main
      000003EEH   PUBLIC    EDATA    BYTE      IIC_num
      000003EFH   PUBLIC    EDATA    BYTE      IIC_ad_sub
      000003F0H   PUBLIC    EDATA    ---       IIC_buf
      000000D0H   SFRSYM    DATA     BYTE      PSW
      00000088H   SFRSYM    DATA     BYTE      TCON
      000000C0H.1 SFRSYM    DATA     BIT       P41
      00000098H   SFRSYM    DATA     BYTE      SCON
      000000C0H.0 SFRSYM    DATA     BIT       P40
      000000B8H   SFRSYM    DATA     BYTE      IP
      000000A8H   SFRSYM    DATA     BYTE      IE
      000000F8H   SFRSYM    DATA     BYTE      P7
      000000E8H   SFRSYM    DATA     BYTE      P6
      000000C8H   SFRSYM    DATA     BYTE      P5
      000000C0H   SFRSYM    DATA     BYTE      P4
      000000B0H   SFRSYM    DATA     BYTE      P3
L251 LINKER/LOCATER V4.66.93.0                                                        04/10/2023  09:21:47  PAGE 51


      000000A0H   SFRSYM    DATA     BYTE      P2
      00000090H   SFRSYM    DATA     BYTE      P1
      00000080H   SFRSYM    DATA     BYTE      P0
      WR6         REGSYM    ---      WORD      j
      R15         REGSYM    ---      BYTE      ack_dat
      R15         REGSYM    ---      BYTE      c
      R14         REGSYM    ---      BYTE      i
      R15         REGSYM    ---      BYTE      ack_x
      R13         REGSYM    ---      BYTE      i
      R14         REGSYM    ---      BYTE      c
      R13         REGSYM    ---      BYTE      dev_add
      R14         REGSYM    ---      BYTE      reg
      R15         REGSYM    ---      BYTE      dat
      R15         REGSYM    ---      BYTE      dev_add
      R14         REGSYM    ---      BYTE      reg
      WR12        REGSYM    ---      INT       type
      R15         REGSYM    ---      BYTE      dat
      REG=3       REGSYM    ---      ---       dat_add

      ---         MODULE    ---      ---       SEEKFREE_IPS114_SPI
      000000D0H   SFRSYM    DATA     BYTE      PSW
      000000A0H.7 SFRSYM    DATA     BIT       P27
      000000A0H.5 SFRSYM    DATA     BIT       P25
      00000088H   SFRSYM    DATA     BYTE      TCON
      000000A0H.3 SFRSYM    DATA     BIT       P23
      00000098H   SFRSYM    DATA     BYTE      SCON
      000000A0H.2 SFRSYM    DATA     BIT       P22
      000000A0H.1 SFRSYM    DATA     BIT       P21
      000000A0H.0 SFRSYM    DATA     BIT       P20
      000000B8H   SFRSYM    DATA     BYTE      IP
      000000A8H   SFRSYM    DATA     BYTE      IE
      000000F8H   SFRSYM    DATA     BYTE      P7
      000000E8H   SFRSYM    DATA     BYTE      P6
      000000C8H   SFRSYM    DATA     BYTE      P5
      000000C0H   SFRSYM    DATA     BYTE      P4
      000000B0H   SFRSYM    DATA     BYTE      P3
      000000A0H   SFRSYM    DATA     BYTE      P2
      00000090H   SFRSYM    DATA     BYTE      P1
      00000080H   SFRSYM    DATA     BYTE      P0
      R7          REGSYM    ---      BYTE      dat
      R6          REGSYM    ---      BYTE      i
      R7          REGSYM    ---      BYTE      dat
      R6          REGSYM    ---      BYTE      i
      WR4         REGSYM    ---      WORD      dat
      R10         REGSYM    ---      BYTE      i
      WR12        REGSYM    ---      WORD      x2
      WR14        REGSYM    ---      WORD      y2
      WR14        REGSYM    ---      WORD      color
      R13         REGSYM    ---      BYTE      i
      WR2         REGSYM    ---      WORD      x
      WR0         REGSYM    ---      WORD      y
      WR14        REGSYM    ---      WORD      color
      WR12        REGSYM    ---      WORD      x
      WR14        REGSYM    ---      WORD      y
      REG=3       REGSYM    ---      ---       dat
      WR12        REGSYM    ---      WORD      x
      WR14        REGSYM    ---      WORD      y
      WR12        REGSYM    ---      WORD      x
      WR14        REGSYM    ---      WORD      y
      R10         REGSYM    ---      BYTE      dat
      WR12        REGSYM    ---      WORD      x
      WR14        REGSYM    ---      WORD      y
      WR12        REGSYM    ---      WORD      x
      WR14        REGSYM    ---      WORD      y
      WR2         REGSYM    ---      WORD      dat
L251 LINKER/LOCATER V4.66.93.0                                                        04/10/2023  09:21:47  PAGE 52


      WR12        REGSYM    ---      WORD      y
      R15         REGSYM    ---      BYTE      num
      R14         REGSYM    ---      BYTE      length
      DR12        REGSYM    ---      FLOAT     dat
      R7          REGSYM    ---      CHAR      point
      R7          REGSYM    ---      BYTE      dat
      R7          REGSYM    ---      BYTE      dat
      WR4         REGSYM    ---      WORD      dat
      WR12        REGSYM    ---      WORD      x2
      WR14        REGSYM    ---      WORD      y2
      WR14        REGSYM    ---      WORD      color
      R13         REGSYM    ---      BYTE      i
      WR2         REGSYM    ---      WORD      x
      WR0         REGSYM    ---      WORD      y
      WR14        REGSYM    ---      WORD      color
      WR12        REGSYM    ---      WORD      x
      WR14        REGSYM    ---      WORD      y
      REG=3       REGSYM    ---      ---       dat
      WR12        REGSYM    ---      WORD      x
      WR14        REGSYM    ---      WORD      y
      WR12        REGSYM    ---      WORD      x
      WR14        REGSYM    ---      WORD      y
      R10         REGSYM    ---      BYTE      dat
      WR12        REGSYM    ---      WORD      x
      WR14        REGSYM    ---      WORD      y
      WR12        REGSYM    ---      WORD      x
      WR14        REGSYM    ---      WORD      y
      WR2         REGSYM    ---      WORD      dat
      WR12        REGSYM    ---      WORD      y
      R15         REGSYM    ---      BYTE      num
      R14         REGSYM    ---      BYTE      length
      DR12        REGSYM    ---      FLOAT     dat
      R7          REGSYM    ---      CHAR      point

      ---         MODULE    ---      ---       SEEKFREE_MPU6050
      000003C4H   PUBLIC    EDATA    INT       mpu_acc_x
      000003C6H   PUBLIC    EDATA    INT       mpu_acc_y
      000003C8H   PUBLIC    EDATA    INT       mpu_acc_z
      000003CAH   PUBLIC    EDATA    INT       mpu_gyro_x
      000003CCH   PUBLIC    EDATA    INT       mpu_gyro_y
      000003CEH   PUBLIC    EDATA    INT       mpu_gyro_z
      000000D0H   SFRSYM    DATA     BYTE      PSW
      00000088H   SFRSYM    DATA     BYTE      TCON
      00000098H   SFRSYM    DATA     BYTE      SCON
      000000B8H   SFRSYM    DATA     BYTE      IP
      000000A8H   SFRSYM    DATA     BYTE      IE
      000000F8H   SFRSYM    DATA     BYTE      P7
      000000E8H   SFRSYM    DATA     BYTE      P6
      000000C8H   SFRSYM    DATA     BYTE      P5
      000000C0H   SFRSYM    DATA     BYTE      P4
      000000B0H   SFRSYM    DATA     BYTE      P3
      000000A0H   SFRSYM    DATA     BYTE      P2
      00000090H   SFRSYM    DATA     BYTE      P1
      00000080H   SFRSYM    DATA     BYTE      P0

      ---         MODULE    ---      ---       SEEKFREE_OLED
      000000D0H   SFRSYM    DATA     BYTE      PSW
      000000E8H.4 SFRSYM    DATA     BIT       P64
      000000E8H.3 SFRSYM    DATA     BIT       P63
      000000E8H.2 SFRSYM    DATA     BIT       P62
      000000E8H.1 SFRSYM    DATA     BIT       P61
      000000E8H.0 SFRSYM    DATA     BIT       P60
      00000088H   SFRSYM    DATA     BYTE      TCON
      00000098H   SFRSYM    DATA     BYTE      SCON
      000000A0H.2 SFRSYM    DATA     BIT       P22
L251 LINKER/LOCATER V4.66.93.0                                                        04/10/2023  09:21:47  PAGE 53


      000000A0H.1 SFRSYM    DATA     BIT       P21
      000000A0H.0 SFRSYM    DATA     BIT       P20
      000000B8H   SFRSYM    DATA     BYTE      IP
      000000A8H   SFRSYM    DATA     BYTE      IE
      000000F8H   SFRSYM    DATA     BYTE      P7
      000000E8H   SFRSYM    DATA     BYTE      P6
      000000C8H   SFRSYM    DATA     BYTE      P5
      000000C0H   SFRSYM    DATA     BYTE      P4
      000000B0H   SFRSYM    DATA     BYTE      P3
      000000A0H   SFRSYM    DATA     BYTE      P2
      00000090H   SFRSYM    DATA     BYTE      P1
      00000080H   SFRSYM    DATA     BYTE      P0
      R7          REGSYM    ---      BYTE      dat
      R6          REGSYM    ---      BYTE      i
      R7          REGSYM    ---      BYTE      cmd
      R6          REGSYM    ---      BYTE      i
      WR8         REGSYM    ---      WORD      hex
      REG=7       REGSYM    ---      ---       Print
      R5          REGSYM    ---      BYTE      hexcheck
      R10         REGSYM    ---      BYTE      TEMP
      R15         REGSYM    ---      BYTE      x
      R10         REGSYM    ---      BYTE      y
      R15         REGSYM    ---      BYTE      bmp_data
      R14         REGSYM    ---      BYTE      y
      R13         REGSYM    ---      BYTE      x
      R15         REGSYM    ---      BYTE      x
      R14         REGSYM    ---      BYTE      y
      R13         REGSYM    ---      BYTE      data1
      R15         REGSYM    ---      BYTE      x
      R14         REGSYM    ---      BYTE      y
      REG=3       REGSYM    ---      ---       ch
      REG=3       REGSYM    ---      ---       ch
      R14         REGSYM    ---      BYTE      x
      R15         REGSYM    ---      BYTE      y
      WR4         REGSYM    ---      WORD      num
      R15         REGSYM    ---      BYTE      x
      R14         REGSYM    ---      BYTE      y
      WR12        REGSYM    ---      INT       num
      WR12        REGSYM    ---      WORD      y
      R15         REGSYM    ---      BYTE      num
      R14         REGSYM    ---      BYTE      length
      DR12        REGSYM    ---      FLOAT     dat
      R7          REGSYM    ---      CHAR      point
      WR4         REGSYM    ---      WORD      high
      REG=3       REGSYM    ---      ---       p
      REG=3       REGSYM    ---      ---       p
      REG=3       REGSYM    ---      ---       ch
      R7          REGSYM    ---      BYTE      dat
      R7          REGSYM    ---      BYTE      cmd
      WR8         REGSYM    ---      WORD      hex
      REG=7       REGSYM    ---      ---       Print
      R5          REGSYM    ---      BYTE      hexcheck
      R10         REGSYM    ---      BYTE      TEMP
      R15         REGSYM    ---      BYTE      x
      R10         REGSYM    ---      BYTE      y
      R15         REGSYM    ---      BYTE      bmp_data
      R14         REGSYM    ---      BYTE      y
      R13         REGSYM    ---      BYTE      x
      R15         REGSYM    ---      BYTE      x
      R14         REGSYM    ---      BYTE      y
      R13         REGSYM    ---      BYTE      data1
      R15         REGSYM    ---      BYTE      x
      R14         REGSYM    ---      BYTE      y
      REG=3       REGSYM    ---      ---       ch
      REG=3       REGSYM    ---      ---       ch
L251 LINKER/LOCATER V4.66.93.0                                                        04/10/2023  09:21:47  PAGE 54


      R14         REGSYM    ---      BYTE      x
      R15         REGSYM    ---      BYTE      y
      WR4         REGSYM    ---      WORD      num
      R15         REGSYM    ---      BYTE      x
      R14         REGSYM    ---      BYTE      y
      WR12        REGSYM    ---      INT       num
      WR12        REGSYM    ---      WORD      y
      R15         REGSYM    ---      BYTE      num
      R14         REGSYM    ---      BYTE      length
      DR12        REGSYM    ---      FLOAT     dat
      R7          REGSYM    ---      CHAR      point
      WR4         REGSYM    ---      WORD      high
      REG=3       REGSYM    ---      ---       p
      REG=3       REGSYM    ---      ---       p

      ---         MODULE    ---      ---       SEEKFREE_TSL1401
      00000008H   PUBLIC    EDATA    BYTE      tsl1401_finish_flag
      00000009H   PUBLIC    EDATA    ---       ccd_data
      000000D0H   SFRSYM    DATA     BYTE      PSW
      000000C8H.1 SFRSYM    DATA     BIT       P51
      00000088H   SFRSYM    DATA     BYTE      TCON
      000000C8H.0 SFRSYM    DATA     BIT       P50
      00000098H   SFRSYM    DATA     BYTE      SCON
      000000B8H   SFRSYM    DATA     BYTE      IP
      000000A8H   SFRSYM    DATA     BYTE      IE
      000000F8H   SFRSYM    DATA     BYTE      P7
      000000E8H   SFRSYM    DATA     BYTE      P6
      000000C8H   SFRSYM    DATA     BYTE      P5
      000000C0H   SFRSYM    DATA     BYTE      P4
      000000B0H   SFRSYM    DATA     BYTE      P3
      000000A0H   SFRSYM    DATA     BYTE      P2
      00000090H   SFRSYM    DATA     BYTE      P1
      00000080H   SFRSYM    DATA     BYTE      P0
      REG=3       REGSYM    ---      ---       dat
      R15         REGSYM    ---      BYTE      i

      ---         MODULE    ---      ---       SEEKFREE_VIRSCO
      000003D0H   PUBLIC    EDATA    ---       virtual_scope_data
      000000D0H   SFRSYM    DATA     BYTE      PSW
      00000088H   SFRSYM    DATA     BYTE      TCON
      00000098H   SFRSYM    DATA     BYTE      SCON
      000000B8H   SFRSYM    DATA     BYTE      IP
      000000A8H   SFRSYM    DATA     BYTE      IE
      000000F8H   SFRSYM    DATA     BYTE      P7
      000000E8H   SFRSYM    DATA     BYTE      P6
      000000C8H   SFRSYM    DATA     BYTE      P5
      000000C0H   SFRSYM    DATA     BYTE      P4
      000000B0H   SFRSYM    DATA     BYTE      P3
      000000A0H   SFRSYM    DATA     BYTE      P2
      00000090H   SFRSYM    DATA     BYTE      P1
      00000080H   SFRSYM    DATA     BYTE      P0
      REG=7       REGSYM    ---      ---       Buf
      R10         REGSYM    ---      BYTE      CRC_CNT
      WR6         REGSYM    ---      WORD      CRC_Temp
      R5          REGSYM    ---      BYTE      i
      R4          REGSYM    ---      BYTE      j
      WR0         REGSYM    ---      INT       data1
      WR30        REGSYM    ---      INT       data2
      WR8         REGSYM    ---      INT       data3
      WR10        REGSYM    ---      INT       data4
      WR6         REGSYM    ---      WORD      CRC16

      ---         MODULE    ---      ---       SEEKFREE_WIRELESS
      00FF008EH   PUBLIC    CODE     ---       wireless_uart_callback
      000000D0H   SFRSYM    DATA     BYTE      PSW
L251 LINKER/LOCATER V4.66.93.0                                                        04/10/2023  09:21:47  PAGE 55


      000000BDH   SFRSYM    DATA     BYTE      S4BUF
      00000080H.7 SFRSYM    DATA     BIT       P07
      00000088H   SFRSYM    DATA     BYTE      TCON
      00000098H   SFRSYM    DATA     BYTE      SCON
      000000B8H   SFRSYM    DATA     BYTE      IP
      000000A8H   SFRSYM    DATA     BYTE      IE
      000000F8H   SFRSYM    DATA     BYTE      P7
      000000E8H   SFRSYM    DATA     BYTE      P6
      000000C8H   SFRSYM    DATA     BYTE      P5
      000000C0H   SFRSYM    DATA     BYTE      P4
      000000B0H   SFRSYM    DATA     BYTE      P3
      000000A0H   SFRSYM    DATA     BYTE      P2
      00000090H   SFRSYM    DATA     BYTE      P1
      00000080H   SFRSYM    DATA     BYTE      P0

      00FF008EH   BLOCK     CODE     ---       LVL=0
      00FF008EH   LINE      CODE     ---       #42
      00FF008EH   LINE      CODE     ---       #43
      00FF008EH   LINE      CODE     ---       #44
      00FF0090H   LINE      CODE     ---       #46
      ---         BLOCKEND  ---      ---       LVL=0
      REG=3       REGSYM    ---      ---       buff

      ---         MODULE    ---      ---       isr
      00FF3815H   PUBLIC    CODE     ---       UART1_Isr
      00FF39F8H   PUBLIC    CODE     ---       UART2_Isr
      00FF3A16H   PUBLIC    CODE     ---       UART3_Isr
      00FF3713H   PUBLIC    CODE     ---       UART4_Isr
      00FF3997H   PUBLIC    CODE     ---       INT0_Isr
      00FF000AH   PUBLIC    CODE     ---       INT1_Isr
      00FF3AA1H   PUBLIC    CODE     ---       INT2_Isr
      00FF39B9H   PUBLIC    CODE     ---       INT3_Isr
      00FF3AA9H   PUBLIC    CODE     ---       INT4_Isr
      00FF0012H   PUBLIC    CODE     ---       TM0_Isr
      00FF2F25H   PUBLIC    CODE     ---       TM1_Isr
      00FF3AB1H   PUBLIC    CODE     ---       TM2_Isr
      00FF3AB9H   PUBLIC    CODE     ---       TM3_Isr
      00FF3AC1H   PUBLIC    CODE     ---       TM4_Isr
      000000D0H   SFRSYM    DATA     BYTE      PSW
      000000DAH   SFRSYM    DATA     BYTE      AUXINTIF
      000000BCH   SFRSYM    DATA     BYTE      S4CON
      000000E5H   SFRSYM    DATA     BYTE      S3CON
      000000E3H   SFRSYM    DATA     BYTE      S2CON
      000000C7H   SFRSYM    DATA     BYTE      IAP_CONTR
      000000C8H.2 SFRSYM    DATA     BIT       P52
      000000C0H.2 SFRSYM    DATA     BIT       P42
      00000088H   SFRSYM    DATA     BYTE      TCON
      00000098H   SFRSYM    DATA     BYTE      SCON
      00000099H   SFRSYM    DATA     BYTE      SBUF
      000000B8H   SFRSYM    DATA     BYTE      IP
      000000A8H   SFRSYM    DATA     BYTE      IE
      000000F8H   SFRSYM    DATA     BYTE      P7
      000000E8H   SFRSYM    DATA     BYTE      P6
      000000C8H   SFRSYM    DATA     BYTE      P5
      000000C0H   SFRSYM    DATA     BYTE      P4
      000000B0H   SFRSYM    DATA     BYTE      P3
      000000A0H   SFRSYM    DATA     BYTE      P2
      00000090H   SFRSYM    DATA     BYTE      P1
      00000080H   SFRSYM    DATA     BYTE      P0

      00FF3815H   BLOCK     CODE     ---       LVL=0
      00FF3819H   BLOCK     CODE     NEAR LAB  LVL=1
      R11         REGSYM    ---      BYTE      res
      000003F4H   SYMBOL    EDATA    BYTE      dwon_count
      ---         BLOCKEND  ---      ---       LVL=1
L251 LINKER/LOCATER V4.66.93.0                                                        04/10/2023  09:21:47  PAGE 56


      00FF3815H   LINE      CODE     ---       #22
      00FF3819H   LINE      CODE     ---       #23
      00FF3819H   LINE      CODE     ---       #26
      00FF381EH   LINE      CODE     ---       #28
      00FF3821H   LINE      CODE     ---       #29
      00FF3826H   LINE      CODE     ---       #30
      00FF3826H   LINE      CODE     ---       #31
      00FF382BH   LINE      CODE     ---       #33
      00FF382EH   LINE      CODE     ---       #34
      00FF3830H   LINE      CODE     ---       #36
      00FF3833H   LINE      CODE     ---       #38
      00FF3843H   LINE      CODE     ---       #39
      00FF3846H   LINE      CODE     ---       #40
      00FF3848H   LINE      CODE     ---       #43
      00FF384DH   LINE      CODE     ---       #44
      00FF384DH   LINE      CODE     ---       #45
      ---         BLOCKEND  ---      ---       LVL=0

      00FF39F8H   BLOCK     CODE     ---       LVL=0
      00FF39F8H   LINE      CODE     ---       #49
      00FF39FCH   LINE      CODE     ---       #51
      00FF3A01H   LINE      CODE     ---       #53
      00FF3A04H   LINE      CODE     ---       #54
      00FF3A09H   LINE      CODE     ---       #55
      00FF3A09H   LINE      CODE     ---       #56
      00FF3A0EH   LINE      CODE     ---       #58
      00FF3A11H   LINE      CODE     ---       #61
      ---         BLOCKEND  ---      ---       LVL=0

      00FF3A16H   BLOCK     CODE     ---       LVL=0
      00FF3A16H   LINE      CODE     ---       #66
      00FF3A1AH   LINE      CODE     ---       #68
      00FF3A1FH   LINE      CODE     ---       #70
      00FF3A22H   LINE      CODE     ---       #71
      00FF3A27H   LINE      CODE     ---       #72
      00FF3A27H   LINE      CODE     ---       #73
      00FF3A2CH   LINE      CODE     ---       #75
      00FF3A2FH   LINE      CODE     ---       #78
      ---         BLOCKEND  ---      ---       LVL=0

      00FF3713H   BLOCK     CODE     ---       LVL=0
      00FF3713H   LINE      CODE     ---       #83
      00FF3729H   LINE      CODE     ---       #85
      00FF372EH   LINE      CODE     ---       #87
      00FF3731H   LINE      CODE     ---       #88
      00FF3736H   LINE      CODE     ---       #89
      00FF3736H   LINE      CODE     ---       #90
      00FF373BH   LINE      CODE     ---       #92
      00FF373EH   LINE      CODE     ---       #95
      00FF3741H   LINE      CODE     ---       #96
      ---         BLOCKEND  ---      ---       LVL=0

      00FF3997H   BLOCK     CODE     ---       LVL=0
      00FF3997H   LINE      CODE     ---       #100
      00FF399DH   LINE      CODE     ---       #102
      00FF399FH   LINE      CODE     ---       #103
      00FF39A9H   LINE      CODE     ---       #104
      00FF39AFH   LINE      CODE     ---       #105
      00FF39B2H   LINE      CODE     ---       #106
      ---         BLOCKEND  ---      ---       LVL=0

      00FF000AH   BLOCK     CODE     ---       LVL=0
      00FF000AH   LINE      CODE     ---       #107
      00FF000AH   LINE      CODE     ---       #110
      ---         BLOCKEND  ---      ---       LVL=0
L251 LINKER/LOCATER V4.66.93.0                                                        04/10/2023  09:21:47  PAGE 57



      00FF3AA1H   BLOCK     CODE     ---       LVL=0
      00FF3AA1H   LINE      CODE     ---       #111
      00FF3AA3H   LINE      CODE     ---       #113
      00FF3AA6H   LINE      CODE     ---       #114
      ---         BLOCKEND  ---      ---       LVL=0

      00FF39B9H   BLOCK     CODE     ---       LVL=0
      00FF39B9H   LINE      CODE     ---       #117
      00FF39BFH   LINE      CODE     ---       #119
      00FF39C9H   LINE      CODE     ---       #120
      00FF39CFH   LINE      CODE     ---       #121
      00FF39D2H   LINE      CODE     ---       #123
      ---         BLOCKEND  ---      ---       LVL=0

      00FF3AA9H   BLOCK     CODE     ---       LVL=0
      00FF3AA9H   LINE      CODE     ---       #125
      00FF3AABH   LINE      CODE     ---       #127
      00FF3AAEH   LINE      CODE     ---       #128
      ---         BLOCKEND  ---      ---       LVL=0

      00FF0012H   BLOCK     CODE     ---       LVL=0
      00FF0012H   LINE      CODE     ---       #130
      00FF0012H   LINE      CODE     ---       #133
      ---         BLOCKEND  ---      ---       LVL=0

      00FF2F25H   BLOCK     CODE     ---       LVL=0
      00FF2F3BH   BLOCK     CODE     NEAR LAB  LVL=1
      000003F5H   SYMBOL    EDATA    BYTE      t_5ms
      000003F6H   SYMBOL    EDATA    BYTE      t_10ms
      000003F7H   SYMBOL    EDATA    BYTE      t_50ms
      000003F8H   SYMBOL    EDATA    BYTE      t_1s
      ---         BLOCKEND  ---      ---       LVL=1
      00FF2F25H   LINE      CODE     ---       #134
      00FF2F3BH   LINE      CODE     ---       #135
      00FF2F3BH   LINE      CODE     ---       #142
      00FF2F44H   LINE      CODE     ---       #143
      00FF2F4DH   LINE      CODE     ---       #144
      00FF2F56H   LINE      CODE     ---       #145
      00FF2F5FH   LINE      CODE     ---       #148
      00FF2F66H   LINE      CODE     ---       #150
      00FF2F6BH   LINE      CODE     ---       #151
      00FF2F71H   LINE      CODE     ---       #152
      00FF2F71H   LINE      CODE     ---       #154
      00FF2F78H   LINE      CODE     ---       #156
      00FF2F7DH   LINE      CODE     ---       #157
      00FF2F83H   LINE      CODE     ---       #158
      00FF2F83H   LINE      CODE     ---       #161
      00FF2F8AH   LINE      CODE     ---       #163
      00FF2F8FH   LINE      CODE     ---       #164
      00FF2F95H   LINE      CODE     ---       #165
      00FF2F98H   LINE      CODE     ---       #166
      00FF2FA8H   LINE      CODE     ---       #167
      00FF2FAEH   LINE      CODE     ---       #168
      00FF2FAEH   LINE      CODE     ---       #170
      00FF2FB5H   LINE      CODE     ---       #172
      00FF2FBAH   LINE      CODE     ---       #173
      00FF2FBCH   LINE      CODE     ---       #174
      00FF2FBCH   LINE      CODE     ---       #176
      00FF2FBFH   LINE      CODE     ---       #178
      ---         BLOCKEND  ---      ---       LVL=0

      00FF3AB1H   BLOCK     CODE     ---       LVL=0
      00FF3AB1H   LINE      CODE     ---       #179
      00FF3AB3H   LINE      CODE     ---       #181
L251 LINKER/LOCATER V4.66.93.0                                                        04/10/2023  09:21:47  PAGE 58


      00FF3AB6H   LINE      CODE     ---       #183
      ---         BLOCKEND  ---      ---       LVL=0

      00FF3AB9H   BLOCK     CODE     ---       LVL=0
      00FF3AB9H   LINE      CODE     ---       #184
      00FF3ABBH   LINE      CODE     ---       #186
      00FF3ABEH   LINE      CODE     ---       #188
      ---         BLOCKEND  ---      ---       LVL=0

      00FF3AC1H   BLOCK     CODE     ---       LVL=0
      00FF3AC1H   LINE      CODE     ---       #190
      00FF3AC3H   LINE      CODE     ---       #192
      00FF3AC6H   LINE      CODE     ---       #195
      ---         BLOCKEND  ---      ---       LVL=0

      ---         MODULE    ---      ---       main
      00FF27E9H   PUBLIC    CODE     ---       main
      00FF2FD6H   PUBLIC    CODE     ---       initialize
      000000D0H   SFRSYM    DATA     BYTE      PSW
      000000F8H.7 SFRSYM    DATA     BIT       P77
      00000088H   SFRSYM    DATA     BYTE      TCON
      00000098H   SFRSYM    DATA     BYTE      SCON
      000000B8H   SFRSYM    DATA     BYTE      IP
      000000A8H   SFRSYM    DATA     BYTE      IE
      000000F8H   SFRSYM    DATA     BYTE      P7
      000000E8H   SFRSYM    DATA     BYTE      P6
      000000C8H   SFRSYM    DATA     BYTE      P5
      000000C0H   SFRSYM    DATA     BYTE      P4
      000000B0H   SFRSYM    DATA     BYTE      P3
      000000A0H   SFRSYM    DATA     BYTE      P2
      00000090H   SFRSYM    DATA     BYTE      P1
      00000080H   SFRSYM    DATA     BYTE      P0

      00FF2FD6H   BLOCK     CODE     ---       LVL=0
      00FF2FD6H   LINE      CODE     ---       #28
      00FF2FD6H   LINE      CODE     ---       #30
      00FF2FD9H   LINE      CODE     ---       #31
      00FF2FDCH   LINE      CODE     ---       #32
      00FF2FE3H   LINE      CODE     ---       #33
      00FF2FE8H   LINE      CODE     ---       #34
      00FF2FEBH   LINE      CODE     ---       #36
      00FF2FFCH   LINE      CODE     ---       #37
      00FF3003H   LINE      CODE     ---       #39
      00FF3006H   LINE      CODE     ---       #40
      00FF3009H   LINE      CODE     ---       #41
      00FF300CH   LINE      CODE     ---       #42
      00FF3019H   LINE      CODE     ---       #43
      00FF301EH   LINE      CODE     ---       #44
      00FF3021H   LINE      CODE     ---       #45
      00FF3024H   LINE      CODE     ---       #46
      00FF3027H   LINE      CODE     ---       #47
      00FF302EH   LINE      CODE     ---       #48
      00FF3035H   LINE      CODE     ---       #49
      00FF3054H   LINE      CODE     ---       #50
      00FF305BH   LINE      CODE     ---       #51
      00FF3062H   LINE      CODE     ---       #52
      00FF306BH   LINE      CODE     ---       #53
      00FF3076H   LINE      CODE     ---       #56
      ---         BLOCKEND  ---      ---       LVL=0

      00FF27E9H   BLOCK     CODE     ---       LVL=0
      000002BFH   SYMBOL    EDATA    ---       txt
      00FF27E9H   LINE      CODE     ---       #59
      00FF27E9H   LINE      CODE     ---       #60
      00FF27E9H   LINE      CODE     ---       #62
L251 LINKER/LOCATER V4.66.93.0                                                        04/10/2023  09:21:47  PAGE 59


      00FF27ECH   LINE      CODE     ---       #69
      00FF27F2H   LINE      CODE     ---       #70
      00FF27FAH   LINE      CODE     ---       #71
      00FF27FEH   LINE      CODE     ---       #73
      00FF280FH   LINE      CODE     ---       #76
      00FF280FH   LINE      CODE     ---       #81
      00FF2826H   LINE      CODE     ---       #82
      00FF2835H   LINE      CODE     ---       #83
      00FF284CH   LINE      CODE     ---       #84
      00FF285BH   LINE      CODE     ---       #85
      00FF2872H   LINE      CODE     ---       #86
      00FF2881H   LINE      CODE     ---       #87
      00FF2898H   LINE      CODE     ---       #88
      00FF28A7H   LINE      CODE     ---       #89
      00FF28BEH   LINE      CODE     ---       #90
      00FF28CDH   LINE      CODE     ---       #94
      00FF28D5H   LINE      CODE     ---       #96
      00FF28D7H   LINE      CODE     ---       #97
      00FF28DFH   LINE      CODE     ---       #98
      00FF28E5H   LINE      CODE     ---       #99
      00FF28F6H   LINE      CODE     ---       #100
      00FF28F8H   LINE      CODE     ---       #101
      00FF28FEH   LINE      CODE     ---       #102
      00FF2902H   LINE      CODE     ---       #103
      00FF2905H   LINE      CODE     ---       #105
      00FF290DH   LINE      CODE     ---       #107
      00FF2910H   LINE      CODE     ---       #108
      ---         BLOCKEND  ---      ---       LVL=0

      ---         MODULE    ---      ---       Function
      00FF2A3BH   PUBLIC    CODE     ---       PlacePID_Control
      00FF36CCH   PUBLIC    CODE     ---       Cha_BI_He_Sqrt
      00FF0026H   PUBLIC    CODE     ---       soft_delay
      00FF3973H   PUBLIC    CODE     ---       PID_Parameter_Init
      00FF388BH   PUBLIC    CODE     ---       I_Median_Average_Filter
      000001D6H   PUBLIC    EDATA    ---       DirectVel_Pid
      000001E6H   PUBLIC    EDATA    ---       TurnPID
      000001F6H   PUBLIC    EDATA    ---       Turn_Pid
      00000236H   PUBLIC    EDATA    ---       SpeedPID
      00000246H   PUBLIC    EDATA    BYTE      Turn_Suquence
      00000247H   PUBLIC    EDATA    ---       DirectVelPID
      00000257H   PUBLIC    EDATA    ---       Speed_Pid
      0000027FH   PUBLIC    EDATA    BYTE      ?PlacePID_Control?BYTE
      000000D0H   SFRSYM    DATA     BYTE      PSW
      00000088H   SFRSYM    DATA     BYTE      TCON
      00000098H   SFRSYM    DATA     BYTE      SCON
      000000B8H   SFRSYM    DATA     BYTE      IP
      000000A8H   SFRSYM    DATA     BYTE      IE
      000000F8H   SFRSYM    DATA     BYTE      P7
      000000E8H   SFRSYM    DATA     BYTE      P6
      000000C8H   SFRSYM    DATA     BYTE      P5
      000000C0H   SFRSYM    DATA     BYTE      P4
      000000B0H   SFRSYM    DATA     BYTE      P3
      000000A0H   SFRSYM    DATA     BYTE      P2
      00000090H   SFRSYM    DATA     BYTE      P1
      00000080H   SFRSYM    DATA     BYTE      P0

      00FF3973H   BLOCK     CODE     ---       LVL=0
      REG=2       REGSYM    ---      ---       sptr
      00FF3973H   LINE      CODE     ---       #23
      00FF3975H   LINE      CODE     ---       #25
      00FF397EH   LINE      CODE     ---       #26
      00FF3986H   LINE      CODE     ---       #27
      00FF398EH   LINE      CODE     ---       #28
      00FF3996H   LINE      CODE     ---       #29
L251 LINKER/LOCATER V4.66.93.0                                                        04/10/2023  09:21:47  PAGE 60


      ---         BLOCKEND  ---      ---       LVL=0

      00FF2A3BH   BLOCK     CODE     ---       LVL=0
      REG=6       REGSYM    ---      ---       sprt
      REG=5       REGSYM    ---      ---       PID
      00000287H   SYMBOL    EDATA    LONG      NowPiont
      0000028BH   SYMBOL    EDATA    LONG      SetPoint
      00FF2A41H   BLOCK     CODE     NEAR LAB  LVL=1
      DR28        REGSYM    ---      LONG      iError
      DR4         REGSYM    ---      LONG      Actual
      DR16        REGSYM    ---      FLOAT     Kp
      ---         BLOCKEND  ---      ---       LVL=1
      00FF2A3BH   LINE      CODE     ---       #48
      00FF2A41H   LINE      CODE     ---       #49
      00FF2A41H   LINE      CODE     ---       #54
      00FF2A4BH   LINE      CODE     ---       #55
      00FF2A6EH   LINE      CODE     ---       #56
      00FF2A86H   LINE      CODE     ---       #58
      00FF2A8DH   LINE      CODE     ---       #59
      00FF2A8FH   LINE      CODE     ---       #60
      00FF2A9BH   LINE      CODE     ---       #62
      00FF2AA7H   LINE      CODE     ---       #63
      00FF2AA7H   LINE      CODE     ---       #65
      00FF2ACAH   LINE      CODE     ---       #67
      00FF2B32H   LINE      CODE     ---       #69
      00FF2B3AH   LINE      CODE     ---       #74
      00FF2B3AH   LINE      CODE     ---       #75
      ---         BLOCKEND  ---      ---       LVL=0
      REG=3       REGSYM    ---      ---       sptr
      DR4         REGSYM    ---      FLOAT     Realize
      REG=6       REGSYM    ---      ---       sptr
      REG=5       REGSYM    ---      ---       PID
      DR28        REGSYM    ---      LONG      iError
      DR4         REGSYM    ---      LONG      Increase
      WR2         REGSYM    ---      INT       x
      WR4         REGSYM    ---      INT       y
      DR8         REGSYM    ---      LONG      duty
      DR28        REGSYM    ---      LONG      min
      WR6         REGSYM    ---      INT       dat

      00FF0026H   BLOCK     CODE     ---       LVL=0
      DR0         REGSYM    ---      LONG      t
      00FF0028H   BLOCK     CODE     NEAR LAB  LVL=1
      WR6         REGSYM    ---      INT       i
      ---         BLOCKEND  ---      ---       LVL=1
      00FF0026H   LINE      CODE     ---       #188
      00FF0028H   LINE      CODE     ---       #189
      00FF0028H   LINE      CODE     ---       #191
      00FF002AH   LINE      CODE     ---       #192
      00FF003EH   LINE      CODE     ---       #193
      ---         BLOCKEND  ---      ---       LVL=0
      WR26        REGSYM    ---      INT       new_value
      WR8         REGSYM    ---      INT       value
      WR6         REGSYM    ---      INT       out_value
      DR24        REGSYM    ---      FLOAT     turn_out
      WR6         REGSYM    ---      INT       Turn_Out_Filtered
      00000267H   SYMBOL    EDATA    ---       Pre1_Error
      DR20        REGSYM    ---      FLOAT     Date
      DR24        REGSYM    ---      FLOAT     value_1
      DR4         REGSYM    ---      FLOAT     Filter_Out
      00000277H   SYMBOL    EDATA    ---       Error
      DR24        REGSYM    ---      FLOAT     Date_1
      DR28        REGSYM    ---      FLOAT     Date_2
      WR22        REGSYM    ---      INT       Cha
      DR0         REGSYM    ---      FLOAT     He
L251 LINKER/LOCATER V4.66.93.0                                                        04/10/2023  09:21:47  PAGE 61


      DR4         REGSYM    ---      FLOAT     Resault

      00FF36CCH   BLOCK     CODE     ---       LVL=0
      WR12        REGSYM    ---      INT       date_1
      WR14        REGSYM    ---      INT       date_2
      00000287H   SYMBOL    EDATA    INT       x
      00FF36D6H   BLOCK     CODE     NEAR LAB  LVL=1
      00000289H   SYMBOL    EDATA    INT       cha
      DR0         REGSYM    ---      FLOAT     he
      DR4         REGSYM    ---      FLOAT     resault
      ---         BLOCKEND  ---      ---       LVL=1
      00FF36CCH   LINE      CODE     ---       #276
      00FF36D6H   LINE      CODE     ---       #277
      00FF36D6H   LINE      CODE     ---       #278
      00FF36D6H   LINE      CODE     ---       #279
      00FF36D6H   LINE      CODE     ---       #281
      00FF36DCH   LINE      CODE     ---       #282
      00FF36F6H   LINE      CODE     ---       #283
      00FF3710H   LINE      CODE     ---       #285
      00FF3710H   LINE      CODE     ---       #286
      ---         BLOCKEND  ---      ---       LVL=0
      WR26        REGSYM    ---      INT       DATE
      DR28        REGSYM    ---      FLOAT     A
      WR6         REGSYM    ---      INT       Final_Date

      00FF388BH   BLOCK     CODE     ---       LVL=0
      REG=0       REGSYM    ---      ---       DATE
      00FF388DH   BLOCK     CODE     NEAR LAB  LVL=1
      R15         REGSYM    ---      BYTE      i
      WR8         REGSYM    ---      INT       max
      WR4         REGSYM    ---      INT       min
      WR6         REGSYM    ---      INT       sum
      ---         BLOCKEND  ---      ---       LVL=1
      00FF388BH   LINE      CODE     ---       #303
      00FF388DH   LINE      CODE     ---       #304
      00FF388DH   LINE      CODE     ---       #307
      00FF388FH   LINE      CODE     ---       #309
      00FF3894H   LINE      CODE     ---       #310
      00FF3894H   LINE      CODE     ---       #312
      00FF3896H   LINE      CODE     ---       #314
      00FF38A7H   LINE      CODE     ---       #315
      00FF38ADH   LINE      CODE     ---       #316
      00FF38AFH   LINE      CODE     ---       #317
      00FF38B6H   LINE      CODE     ---       #319
      00FF38C1H   LINE      CODE     ---       #320
      00FF38C1H   LINE      CODE     ---       #321
      ---         BLOCKEND  ---      ---       LVL=0

      ---         MODULE    ---      ---       fuse
      00FF2C1CH   PUBLIC    CODE     ---       Fuse_result
      00FF3A34H   PUBLIC    CODE     ---       Flag_Init
      000003DAH   PUBLIC    EDATA    INT       Turn_PWM
      000003DCH   PUBLIC    EDATA    BYTE      int_OK
      000003DDH   PUBLIC    EDATA    ---       Flag
      000000D0H   SFRSYM    DATA     BYTE      PSW
      00000088H   SFRSYM    DATA     BYTE      TCON
      00000098H   SFRSYM    DATA     BYTE      SCON
      000000B8H   SFRSYM    DATA     BYTE      IP
      000000A8H   SFRSYM    DATA     BYTE      IE
      000000F8H   SFRSYM    DATA     BYTE      P7
      000000E8H   SFRSYM    DATA     BYTE      P6
      000000C8H   SFRSYM    DATA     BYTE      P5
      000000C0H   SFRSYM    DATA     BYTE      P4
      000000B0H   SFRSYM    DATA     BYTE      P3
      000000A0H   SFRSYM    DATA     BYTE      P2
L251 LINKER/LOCATER V4.66.93.0                                                        04/10/2023  09:21:47  PAGE 62


      00000090H   SFRSYM    DATA     BYTE      P1
      00000080H   SFRSYM    DATA     BYTE      P0

      00FF2C1CH   BLOCK     CODE     ---       LVL=0
      00FF2C1CH   LINE      CODE     ---       #13
      00FF2C1EH   LINE      CODE     ---       #15
      00FF2C27H   LINE      CODE     ---       #18
      00FF2C2DH   LINE      CODE     ---       #20
      00FF2C34H   LINE      CODE     ---       #21
      00FF2C37H   LINE      CODE     ---       #26
      00FF2C3EH   LINE      CODE     ---       #28
      00FF2C43H   LINE      CODE     ---       #31
      00FF2C4BH   LINE      CODE     ---       #32
      00FF2C4FH   LINE      CODE     ---       #33
      00FF2C55H   LINE      CODE     ---       #34
      00FF2C60H   LINE      CODE     ---       #36
      00FF2C60H   LINE      CODE     ---       #39
      00FF2C67H   LINE      CODE     ---       #41
      00FF2C6CH   LINE      CODE     ---       #43
      00FF2C6FH   LINE      CODE     ---       #46
      00FF2C9BH   LINE      CODE     ---       #47
      00FF2CC1H   LINE      CODE     ---       #48
      00FF2CCBH   LINE      CODE     ---       #49
      00FF2CCEH   LINE      CODE     ---       #50
      00FF2CCEH   LINE      CODE     ---       #52
      00FF2CD5H   LINE      CODE     ---       #54
      00FF2CDAH   LINE      CODE     ---       #60
      00FF2CE8H   LINE      CODE     ---       #61
      00FF2CE8H   LINE      CODE     ---       #63
      ---         BLOCKEND  ---      ---       LVL=0

      00FF3A34H   BLOCK     CODE     ---       LVL=0
      00FF3A34H   LINE      CODE     ---       #71
      00FF3A34H   LINE      CODE     ---       #73
      00FF3A39H   LINE      CODE     ---       #74
      00FF3A3DH   LINE      CODE     ---       #75
      00FF3A41H   LINE      CODE     ---       #76
      00FF3A45H   LINE      CODE     ---       #77
      00FF3A49H   LINE      CODE     ---       #78
      00FF3A4DH   LINE      CODE     ---       #79
      00FF3A51H   LINE      CODE     ---       #80
      ---         BLOCKEND  ---      ---       LVL=0

      ---         MODULE    ---      ---       speed
      00FF32BAH   PUBLIC    CODE     ---       init_PWM
      00FF2913H   PUBLIC    CODE     ---       go_motor
      00FF3340H   PUBLIC    CODE     ---       speed_measure
      00FF3A65H   PUBLIC    CODE     ---       encoder_init
      000002FBH   PUBLIC    EDATA    INT       Set_Speed
      000002FDH   PUBLIC    EDATA    INT       Last_right_speed
      000002FFH   PUBLIC    EDATA    INT       right_speed
      00000301H   PUBLIC    EDATA    INT       Last_left_speed
      00000303H   PUBLIC    EDATA    BYTE      MOTOR_MODE
      00000304H   PUBLIC    EDATA    INT       real_speed
      00000306H   PUBLIC    EDATA    INT       left_speed
      00000308H   PUBLIC    EDATA    INT       last_speed
      0000030AH   PUBLIC    EDATA    INT       aim_speed
      0000030CH   PUBLIC    EDATA    FLOAT     I_Calculate
      00000310H   PUBLIC    EDATA    FLOAT     P_Calculate
      00000314H   PUBLIC    EDATA    INT       Speed_PWM
      00000316H   PUBLIC    EDATA    LONG      distance
      0000031BH   PUBLIC    EDATA    INT       All_PWM_right
      0000031DH   PUBLIC    EDATA    INT       Speed_Min
      00000323H   PUBLIC    EDATA    INT       All_PWM_left
      000000D0H   SFRSYM    DATA     BYTE      PSW
L251 LINKER/LOCATER V4.66.93.0                                                        04/10/2023  09:21:47  PAGE 63


      000000E8H.4 SFRSYM    DATA     BIT       P64
      000000B0H.5 SFRSYM    DATA     BIT       P35
      000000C8H.3 SFRSYM    DATA     BIT       P53
      000000E8H.0 SFRSYM    DATA     BIT       P60
      00000088H   SFRSYM    DATA     BYTE      TCON
      00000098H   SFRSYM    DATA     BYTE      SCON
      000000B8H   SFRSYM    DATA     BYTE      IP
      000000A8H   SFRSYM    DATA     BYTE      IE
      000000F8H   SFRSYM    DATA     BYTE      P7
      000000E8H   SFRSYM    DATA     BYTE      P6
      000000C8H   SFRSYM    DATA     BYTE      P5
      000000C0H   SFRSYM    DATA     BYTE      P4
      000000B0H   SFRSYM    DATA     BYTE      P3
      000000A0H   SFRSYM    DATA     BYTE      P2
      00000090H   SFRSYM    DATA     BYTE      P1
      00000080H   SFRSYM    DATA     BYTE      P0
      0000031AH   SYMBOL    EDATA    CHAR      separate
      0000031FH   SYMBOL    EDATA    FLOAT     SpeedErrorInteg

      00FF3A65H   BLOCK     CODE     ---       LVL=0
      00FF3A65H   LINE      CODE     ---       #35
      00FF3A65H   LINE      CODE     ---       #37
      00FF3A6AH   LINE      CODE     ---       #38
      00FF3A6CH   LINE      CODE     ---       #39
      00FF3A73H   LINE      CODE     ---       #40
      00FF3A75H   LINE      CODE     ---       #41
      ---         BLOCKEND  ---      ---       LVL=0

      00FF3340H   BLOCK     CODE     ---       LVL=0
      00FF3340H   LINE      CODE     ---       #51
      00FF3340H   LINE      CODE     ---       #54
      00FF334BH   LINE      CODE     ---       #55
      00FF3352H   LINE      CODE     ---       #60
      00FF335BH   LINE      CODE     ---       #61
      00FF3360H   LINE      CODE     ---       #64
      00FF3367H   LINE      CODE     ---       #65
      00FF3371H   LINE      CODE     ---       #66
      00FF3371H   LINE      CODE     ---       #67
      00FF3378H   LINE      CODE     ---       #68
      00FF3382H   LINE      CODE     ---       #69
      00FF3382H   LINE      CODE     ---       #74
      00FF3397H   LINE      CODE     ---       #78
      00FF339BH   LINE      CODE     ---       #80
      00FF33C2H   LINE      CODE     ---       #81
      ---         BLOCKEND  ---      ---       LVL=0
      REG=7       REGSYM    ---      ---       PID
      WR6         REGSYM    ---      INT       speed
      WR4         REGSYM    ---      INT       set_speed
      DR20        REGSYM    ---      FLOAT     SpeedControlOut
      WR26        REGSYM    ---      INT       SpeedError
      00000325H   SYMBOL    EDATA    BYTE      k
      00000326H   SYMBOL    EDATA    ---       PreError

      00FF32BAH   BLOCK     CODE     ---       LVL=0
      R7          REGSYM    ---      BYTE      Motor_Set
      00FF32BAH   LINE      CODE     ---       #140
      00FF32BCH   LINE      CODE     ---       #142
      00FF32C0H   LINE      CODE     ---       #143
      00FF32C4H   LINE      CODE     ---       #146
      00FF32D5H   LINE      CODE     ---       #147
      00FF32E6H   LINE      CODE     ---       #148
      00FF32F7H   LINE      CODE     ---       #149
      00FF3308H   LINE      CODE     ---       #150
      00FF3308H   LINE      CODE     ---       #154
      00FF3319H   LINE      CODE     ---       #155
L251 LINKER/LOCATER V4.66.93.0                                                        04/10/2023  09:21:47  PAGE 64


      00FF3324H   LINE      CODE     ---       #156
      00FF3335H   LINE      CODE     ---       #157
      00FF3340H   LINE      CODE     ---       #159
      00FF3340H   LINE      CODE     ---       #161
      ---         BLOCKEND  ---      ---       LVL=0

      00FF2913H   BLOCK     CODE     ---       LVL=0
      WR12        REGSYM    ---      INT       left_PWM
      WR14        REGSYM    ---      INT       right_PWM
      00FF2913H   LINE      CODE     ---       #174
      00FF2919H   LINE      CODE     ---       #176
      00FF2922H   LINE      CODE     ---       #179
      00FF2928H   LINE      CODE     ---       #181
      00FF2934H   LINE      CODE     ---       #182
      00FF2941H   LINE      CODE     ---       #183
      00FF2947H   LINE      CODE     ---       #184
      00FF2949H   LINE      CODE     ---       #187
      00FF295BH   LINE      CODE     ---       #188
      00FF2964H   LINE      CODE     ---       #189
      00FF2971H   LINE      CODE     ---       #190
      00FF2971H   LINE      CODE     ---       #192
      00FF2977H   LINE      CODE     ---       #194
      00FF2983H   LINE      CODE     ---       #195
      00FF2990H   LINE      CODE     ---       #196
      00FF2996H   LINE      CODE     ---       #197
      00FF2999H   LINE      CODE     ---       #200
      00FF29ABH   LINE      CODE     ---       #201
      00FF29B4H   LINE      CODE     ---       #202
      00FF29BEH   LINE      CODE     ---       #203
      00FF29BEH   LINE      CODE     ---       #204
      00FF29C0H   LINE      CODE     ---       #208
      00FF29C6H   LINE      CODE     ---       #210
      00FF29D2H   LINE      CODE     ---       #211
      00FF29D4H   LINE      CODE     ---       #212
      00FF29D4H   LINE      CODE     ---       #213
      00FF29D6H   LINE      CODE     ---       #216
      00FF29E8H   LINE      CODE     ---       #217
      00FF29EAH   LINE      CODE     ---       #218
      00FF29F7H   LINE      CODE     ---       #219
      00FF29F7H   LINE      CODE     ---       #221
      00FF29FDH   LINE      CODE     ---       #223
      00FF2A09H   LINE      CODE     ---       #224
      00FF2A0BH   LINE      CODE     ---       #225
      00FF2A15H   LINE      CODE     ---       #227
      00FF2A17H   LINE      CODE     ---       #230
      00FF2A29H   LINE      CODE     ---       #231
      00FF2A2BH   LINE      CODE     ---       #232
      00FF2A38H   LINE      CODE     ---       #233
      00FF2A38H   LINE      CODE     ---       #234
      00FF2A38H   LINE      CODE     ---       #236
      ---         BLOCKEND  ---      ---       LVL=0

      ---         MODULE    ---      ---       DirectioN
      00FF1EEEH   PUBLIC    CODE     ---       Annulus_Analysis
      00FF394AH   PUBLIC    CODE     ---       Steering_Control_Out
      00FF2CEBH   PUBLIC    CODE     ---       AD_Date_Fitier
      00FF269AH   PUBLIC    CODE     ---       Sanc_Cha_Kou_Analysis
      00FF38F2H   PUBLIC    CODE     ---       ADC_Int
      00FF3A98H   PUBLIC    CODE     ---       Electromagnetism_Control
      00FF3A52H   PUBLIC    CODE     ---       init_Steer_PWM
      0000034EH   PUBLIC    EDATA    INT       Left_Xie_Adc
      00000350H   PUBLIC    EDATA    INT       Mid_Adc
      00000352H   PUBLIC    EDATA    BYTE      annulus_flag
      00000353H   PUBLIC    EDATA    LONG      corner
      00000357H   PUBLIC    EDATA    WORD      SanChaKou_T
L251 LINKER/LOCATER V4.66.93.0                                                        04/10/2023  09:21:47  PAGE 65


      00000359H   PUBLIC    EDATA    WORD      T_Clear
      0000035BH   PUBLIC    EDATA    ---       adc_date
      00000365H   PUBLIC    EDATA    WORD      Out_Time
      00000367H   PUBLIC    EDATA    BYTE      SanChaKou_Number
      00000368H   PUBLIC    EDATA    WORD      T_annulus
      0000036AH   PUBLIC    EDATA    LONG      SanChakou_Length
      0000036EH   PUBLIC    EDATA    BYTE      SanChaKou_Once
      0000036FH   PUBLIC    EDATA    ---       Dianci
      00000375H   PUBLIC    EDATA    WORD      Corner_Limit
      00000377H   PUBLIC    EDATA    ---       adc_min
      00000381H   PUBLIC    EDATA    ---       adc_max
      0000038BH   PUBLIC    EDATA    INT       adc_deviation
      0000038DH   PUBLIC    EDATA    BYTE      Left_Annulus
      0000038EH   PUBLIC    EDATA    WORD      leftleft
      00000390H   PUBLIC    EDATA    WORD      Annulus_Distance_Limit
      00000392H   PUBLIC    EDATA    BYTE      annulus_success
      00000393H   PUBLIC    EDATA    INT       Right_Adc
      00000395H   PUBLIC    EDATA    BYTE      Direction_Annulus
      00000396H   PUBLIC    EDATA    INT       Right_Xie_Adc
      00000398H   PUBLIC    EDATA    INT       Left_Adc
      0000039AH   PUBLIC    EDATA    LONG      Annulus_Distance
      0000039EH   PUBLIC    EDATA    BYTE      Round_Start
      000000D0H   SFRSYM    DATA     BYTE      PSW
      000000F8H.7 SFRSYM    DATA     BIT       P77
      00000088H   SFRSYM    DATA     BYTE      TCON
      00000098H   SFRSYM    DATA     BYTE      SCON
      000000B8H   SFRSYM    DATA     BYTE      IP
      000000A8H   SFRSYM    DATA     BYTE      IE
      000000F8H   SFRSYM    DATA     BYTE      P7
      000000E8H   SFRSYM    DATA     BYTE      P6
      000000C8H   SFRSYM    DATA     BYTE      P5
      000000C0H   SFRSYM    DATA     BYTE      P4
      000000B0H   SFRSYM    DATA     BYTE      P3
      000000A0H   SFRSYM    DATA     BYTE      P2
      00000090H   SFRSYM    DATA     BYTE      P1
      00000080H   SFRSYM    DATA     BYTE      P0

      00FF38F2H   BLOCK     CODE     ---       LVL=0
      00FF38F2H   LINE      CODE     ---       #26
      00FF38F2H   LINE      CODE     ---       #29
      00FF38FBH   LINE      CODE     ---       #30
      00FF3904H   LINE      CODE     ---       #31
      00FF390DH   LINE      CODE     ---       #32
      00FF3916H   LINE      CODE     ---       #33
      ---         BLOCKEND  ---      ---       LVL=0
      WR14        REGSYM    ---      INT       i
      WR12        REGSYM    ---      INT       j

      00FF2CEBH   BLOCK     CODE     ---       LVL=0
      00FF2CEDH   BLOCK     CODE     NEAR LAB  LVL=1
      R15         REGSYM    ---      BYTE      i
      00000287H   SYMBOL    EDATA    ---       filter_buf_L
      00000291H   SYMBOL    EDATA    ---       filter_buf_LC
      0000029BH   SYMBOL    EDATA    ---       filter_buf_M
      000002A5H   SYMBOL    EDATA    ---       filter_buf_R
      000002AFH   SYMBOL    EDATA    ---       filter_buf_RC
      ---         BLOCKEND  ---      ---       LVL=1
      00FF2CEBH   LINE      CODE     ---       #79
      00FF2CEDH   LINE      CODE     ---       #80
      00FF2CEDH   LINE      CODE     ---       #90
      00FF2CEFH   LINE      CODE     ---       #92
      00FF2D02H   LINE      CODE     ---       #93
      00FF2D15H   LINE      CODE     ---       #95
      00FF2D28H   LINE      CODE     ---       #97
      00FF2D3BH   LINE      CODE     ---       #98
L251 LINKER/LOCATER V4.66.93.0                                                        04/10/2023  09:21:47  PAGE 66


      00FF2D4EH   LINE      CODE     ---       #99
      00FF2D55H   LINE      CODE     ---       #101
      00FF2D60H   LINE      CODE     ---       #102
      00FF2D6BH   LINE      CODE     ---       #103
      00FF2D76H   LINE      CODE     ---       #104
      00FF2D81H   LINE      CODE     ---       #105
      00FF2D8CH   LINE      CODE     ---       #109
      00FF2D94H   LINE      CODE     ---       #110
      00FF2D9CH   LINE      CODE     ---       #111
      00FF2DA4H   LINE      CODE     ---       #112
      00FF2DACH   LINE      CODE     ---       #113
      00FF2DB0H   LINE      CODE     ---       #116
      ---         BLOCKEND  ---      ---       LVL=0
      R7          REGSYM    ---      BYTE      i

      00FF1EEEH   BLOCK     CODE     ---       LVL=0
      00FF1EEEH   LINE      CODE     ---       #191
      00FF1EEEH   LINE      CODE     ---       #194
      00FF1EFAH   LINE      CODE     ---       #197
      00FF1F86H   LINE      CODE     ---       #200
      00FF1F8EH   LINE      CODE     ---       #201
      00FF1FA6H   LINE      CODE     ---       #203
      00FF1FA8H   LINE      CODE     ---       #205
      00FF1FAAH   LINE      CODE     ---       #207
      00FF1FAFH   LINE      CODE     ---       #209
      00FF1FAFH   LINE      CODE     ---       #210
      00FF1FB1H   LINE      CODE     ---       #211
      00FF1FBAH   LINE      CODE     ---       #212
      00FF1FC0H   LINE      CODE     ---       #214
      00FF1FC0H   LINE      CODE     ---       #217
      00FF1FC7H   LINE      CODE     ---       #219
      00FF1FCDH   LINE      CODE     ---       #220
      00FF1FD7H   LINE      CODE     ---       #222
      00FF1FE3H   LINE      CODE     ---       #224
      00FF1FE5H   LINE      CODE     ---       #225
      00FF1FEBH   LINE      CODE     ---       #226
      00FF1FF2H   LINE      CODE     ---       #229
      00FF1FFEH   LINE      CODE     ---       #231
      00FF2006H   LINE      CODE     ---       #234
      00FF2008H   LINE      CODE     ---       #235
      00FF200AH   LINE      CODE     ---       #238
      00FF2016H   LINE      CODE     ---       #239
      00FF2022H   LINE      CODE     ---       #240
      00FF2024H   LINE      CODE     ---       #243
      00FF202AH   LINE      CODE     ---       #245
      00FF2030H   LINE      CODE     ---       #246
      00FF2036H   LINE      CODE     ---       #247
      00FF2036H   LINE      CODE     ---       #248
      00FF2036H   LINE      CODE     ---       #249
      00FF203CH   LINE      CODE     ---       #252
      00FF203CH   LINE      CODE     ---       #258
      00FF2043H   LINE      CODE     ---       #260
      00FF2045H   LINE      CODE     ---       #261
      00FF204FH   LINE      CODE     ---       #262
      00FF2055H   LINE      CODE     ---       #263
      00FF2065H   LINE      CODE     ---       #265
      00FF206CH   LINE      CODE     ---       #267
      00FF206CH   LINE      CODE     ---       #268
      00FF2078H   LINE      CODE     ---       #270
      00FF207AH   LINE      CODE     ---       #271
      00FF207CH   LINE      CODE     ---       #273
      00FF2088H   LINE      CODE     ---       #274
      00FF2088H   LINE      CODE     ---       #275
      00FF208AH   LINE      CODE     ---       #277
      00FF2090H   LINE      CODE     ---       #279
L251 LINKER/LOCATER V4.66.93.0                                                        04/10/2023  09:21:47  PAGE 67


      00FF2096H   LINE      CODE     ---       #280
      00FF209CH   LINE      CODE     ---       #281
      00FF209EH   LINE      CODE     ---       #282
      00FF20A4H   LINE      CODE     ---       #285
      00FF20A4H   LINE      CODE     ---       #290
      00FF20A4H   LINE      CODE     ---       #313
      00FF20A4H   LINE      CODE     ---       #316
      00FF20ABH   LINE      CODE     ---       #317
      00FF20B5H   LINE      CODE     ---       #319
      00FF20BFH   LINE      CODE     ---       #324
      00FF20C8H   LINE      CODE     ---       #325
      00FF20CDH   LINE      CODE     ---       #326
      00FF20D1H   LINE      CODE     ---       #327
      00FF20D7H   LINE      CODE     ---       #328
      00FF20DBH   LINE      CODE     ---       #329
      00FF20E1H   LINE      CODE     ---       #330
      00FF20E7H   LINE      CODE     ---       #331
      00FF20EFH   LINE      CODE     ---       #332
      00FF20F4H   LINE      CODE     ---       #333
      00FF20F4H   LINE      CODE     ---       #336
      ---         BLOCKEND  ---      ---       LVL=0

      00FF269AH   BLOCK     CODE     ---       LVL=0
      00FF269AH   LINE      CODE     ---       #351
      00FF269CH   LINE      CODE     ---       #358
      00FF2702H   LINE      CODE     ---       #361
      00FF2708H   LINE      CODE     ---       #362
      00FF270FH   LINE      CODE     ---       #363
      00FF2711H   LINE      CODE     ---       #364
      00FF2711H   LINE      CODE     ---       #365
      00FF2719H   LINE      CODE     ---       #367
      00FF2723H   LINE      CODE     ---       #411
      00FF2733H   LINE      CODE     ---       #413
      00FF2738H   LINE      CODE     ---       #415
      00FF2738H   LINE      CODE     ---       #418
      00FF2741H   LINE      CODE     ---       #420
      00FF274DH   LINE      CODE     ---       #422
      00FF2757H   LINE      CODE     ---       #423
      00FF2760H   LINE      CODE     ---       #424
      00FF2768H   LINE      CODE     ---       #425
      00FF2770H   LINE      CODE     ---       #426
      00FF277AH   LINE      CODE     ---       #428
      00FF2780H   LINE      CODE     ---       #429
      00FF2785H   LINE      CODE     ---       #432
      00FF2787H   LINE      CODE     ---       #433
      00FF2787H   LINE      CODE     ---       #436
      00FF2789H   LINE      CODE     ---       #438
      00FF278EH   LINE      CODE     ---       #440
      00FF2795H   LINE      CODE     ---       #442
      00FF279FH   LINE      CODE     ---       #444
      00FF27A7H   LINE      CODE     ---       #445
      00FF27AFH   LINE      CODE     ---       #446
      00FF27B9H   LINE      CODE     ---       #448
      00FF27BFH   LINE      CODE     ---       #449
      00FF27C4H   LINE      CODE     ---       #450
      00FF27C6H   LINE      CODE     ---       #451
      00FF27C6H   LINE      CODE     ---       #453
      00FF27C8H   LINE      CODE     ---       #454
      00FF27D6H   LINE      CODE     ---       #455
      00FF27E0H   LINE      CODE     ---       #457
      00FF27E2H   LINE      CODE     ---       #458
      00FF27E6H   LINE      CODE     ---       #459
      00FF27E6H   LINE      CODE     ---       #462
      ---         BLOCKEND  ---      ---       LVL=0

L251 LINKER/LOCATER V4.66.93.0                                                        04/10/2023  09:21:47  PAGE 68


      00FF3A98H   BLOCK     CODE     ---       LVL=0
      00FF3A98H   LINE      CODE     ---       #496
      00FF3A98H   LINE      CODE     ---       #498
      00FF3A9BH   LINE      CODE     ---       #499
      00FF3A9EH   LINE      CODE     ---       #500
      ---         BLOCKEND  ---      ---       LVL=0

      00FF3A52H   BLOCK     CODE     ---       LVL=0
      00FF3A52H   LINE      CODE     ---       #521
      00FF3A52H   LINE      CODE     ---       #523
      ---         BLOCKEND  ---      ---       LVL=0

      00FF394AH   BLOCK     CODE     ---       LVL=0
      WR4         REGSYM    ---      INT       duty
      00FF394AH   LINE      CODE     ---       #534
      00FF394CH   LINE      CODE     ---       #536
      00FF3950H   LINE      CODE     ---       #537
      00FF395CH   LINE      CODE     ---       #538
      00FF3966H   LINE      CODE     ---       #539
      ---         BLOCKEND  ---      ---       LVL=0

      ---         MODULE    ---      ---       debug
      00FF319DH   PUBLIC    CODE     ---       Switch_Key_init
      00FF3AC9H   PUBLIC    CODE     ---       BUZZ_DiDiDi
      00FF3758H   PUBLIC    CODE     ---       Strategy_Slect
      0000039FH   PUBLIC    EDATA    BYTE      key1_status
      000003A0H   PUBLIC    EDATA    BYTE      key2_status
      000003A1H   PUBLIC    EDATA    BYTE      key3_status
      000003A2H   PUBLIC    EDATA    BYTE      key4_status
      000003A3H   PUBLIC    EDATA    BYTE      key5_status
      000003A4H   PUBLIC    EDATA    BYTE      TFT_SHOW
      000003A5H   PUBLIC    EDATA    BYTE      key1_last_status
      000003A6H   PUBLIC    EDATA    BYTE      key2_last_status
      000003A7H   PUBLIC    EDATA    BYTE      key3_last_status
      000003A8H   PUBLIC    EDATA    BYTE      key4_last_status
      000003A9H   PUBLIC    EDATA    BYTE      key5_last_status
      000003AAH   PUBLIC    EDATA    BYTE      TiaoCan
      000003ABH   PUBLIC    EDATA    BYTE      Switch1
      000003ACH   PUBLIC    EDATA    BYTE      Switch2
      000003ADH   PUBLIC    EDATA    BYTE      Switch3
      000003AEH   PUBLIC    EDATA    BYTE      Switch4
      000003AFH   PUBLIC    EDATA    BYTE      Switch5
      000003B0H   PUBLIC    EDATA    BYTE      Switch6
      000003B1H   PUBLIC    EDATA    BYTE      gogo
      000003B2H   PUBLIC    EDATA    CHAR      parameter
      000003B3H   PUBLIC    EDATA    BYTE      key1_flag
      000003B4H   PUBLIC    EDATA    BYTE      key2_flag
      000003B5H   PUBLIC    EDATA    BYTE      key3_flag
      000003B6H   PUBLIC    EDATA    BYTE      key4_flag
      000003B7H   PUBLIC    EDATA    BYTE      key5_flag
      000000D0H   SFRSYM    DATA     BYTE      PSW
      000000F8H.7 SFRSYM    DATA     BIT       P77
      000000F8H.3 SFRSYM    DATA     BIT       P73
      000000F8H.2 SFRSYM    DATA     BIT       P72
      000000F8H.1 SFRSYM    DATA     BIT       P71
      000000F8H.0 SFRSYM    DATA     BIT       P70
      000000B0H.3 SFRSYM    DATA     BIT       P33
      00000088H   SFRSYM    DATA     BYTE      TCON
      000000B0H.2 SFRSYM    DATA     BIT       P32
      00000098H   SFRSYM    DATA     BYTE      SCON
      000000A0H.0 SFRSYM    DATA     BIT       P20
      000000B8H   SFRSYM    DATA     BYTE      IP
      000000A8H   SFRSYM    DATA     BYTE      IE
      000000F8H   SFRSYM    DATA     BYTE      P7
      000000E8H   SFRSYM    DATA     BYTE      P6
L251 LINKER/LOCATER V4.66.93.0                                                        04/10/2023  09:21:47  PAGE 69


      000000C8H   SFRSYM    DATA     BYTE      P5
      000000C0H   SFRSYM    DATA     BYTE      P4
      000000B0H   SFRSYM    DATA     BYTE      P3
      000000A0H   SFRSYM    DATA     BYTE      P2
      00000090H   SFRSYM    DATA     BYTE      P1
      00000080H   SFRSYM    DATA     BYTE      P0
      00FF3F65H   SYMBOL    HCONST   ---       ?tpl?0001

      00FF319DH   BLOCK     CODE     ---       LVL=0
      00FF319DH   LINE      CODE     ---       #74
      00FF319DH   LINE      CODE     ---       #78
      00FF31AAH   LINE      CODE     ---       #79
      00FF31B7H   LINE      CODE     ---       #80
      00FF31C4H   LINE      CODE     ---       #81
      00FF31D1H   LINE      CODE     ---       #82
      00FF31DEH   LINE      CODE     ---       #83
      00FF31EBH   LINE      CODE     ---       #86
      00FF31F8H   LINE      CODE     ---       #87
      00FF3205H   LINE      CODE     ---       #88
      00FF3212H   LINE      CODE     ---       #89
      00FF321FH   LINE      CODE     ---       #90
      ---         BLOCKEND  ---      ---       LVL=0

      00FF3758H   BLOCK     CODE     ---       LVL=0
      00FF3758H   LINE      CODE     ---       #105
      00FF3758H   LINE      CODE     ---       #108
      00FF375BH   LINE      CODE     ---       #110
      00FF3761H   LINE      CODE     ---       #111
      00FF3765H   LINE      CODE     ---       #113
      00FF3765H   LINE      CODE     ---       #114
      00FF3768H   LINE      CODE     ---       #116
      00FF376EH   LINE      CODE     ---       #117
      00FF3773H   LINE      CODE     ---       #118
      00FF3773H   LINE      CODE     ---       #121
      00FF3776H   LINE      CODE     ---       #123
      00FF377CH   LINE      CODE     ---       #124
      00FF377CH   LINE      CODE     ---       #125
      00FF377FH   LINE      CODE     ---       #127
      00FF3785H   LINE      CODE     ---       #129
      00FF3785H   LINE      CODE     ---       #130
      00FF3788H   LINE      CODE     ---       #132
      00FF378EH   LINE      CODE     ---       #134
      00FF378EH   LINE      CODE     ---       #135
      00FF3791H   LINE      CODE     ---       #137
      00FF3797H   LINE      CODE     ---       #139
      00FF3797H   LINE      CODE     ---       #141
      00FF3797H   LINE      CODE     ---       #144
      ---         BLOCKEND  ---      ---       LVL=0

      00FF3AC9H   BLOCK     CODE     ---       LVL=0
      WR6         REGSYM    ---      WORD      PinLV
      00FF3AC9H   LINE      CODE     ---       #321
      00FF3AC9H   LINE      CODE     ---       #323
      00FF3ACBH   LINE      CODE     ---       #324
      00FF3ACEH   LINE      CODE     ---       #325
      00FF3AD0H   LINE      CODE     ---       #326
      ---         BLOCKEND  ---      ---       LVL=0
      WR14        REGSYM    ---      WORD      duty

      ---         MODULE    ---      ---       NewOther
      00FF20F5H   PUBLIC    CODE     ---       OutInGarage
      00FF3431H   PUBLIC    CODE     ---       STOP_Analyse
      000003E4H   PUBLIC    EDATA    BYTE      Only_Once
      000003E5H   PUBLIC    EDATA    BYTE      LEFT_RIGHT
      000003E6H   PUBLIC    EDATA    BYTE      INT_Flag
L251 LINKER/LOCATER V4.66.93.0                                                        04/10/2023  09:21:47  PAGE 70


      000003E7H   PUBLIC    EDATA    DWORD     T_ALready
      000003EBH   PUBLIC    EDATA    WORD      STOP_T_Count
      000000D0H   SFRSYM    DATA     BYTE      PSW
      000000F8H.7 SFRSYM    DATA     BIT       P77
      00000088H   SFRSYM    DATA     BYTE      TCON
      000000B0H.2 SFRSYM    DATA     BIT       P32
      00000098H   SFRSYM    DATA     BYTE      SCON
      000000B8H   SFRSYM    DATA     BYTE      IP
      000000A8H   SFRSYM    DATA     BYTE      IE
      000000F8H   SFRSYM    DATA     BYTE      P7
      000000E8H   SFRSYM    DATA     BYTE      P6
      000000C8H   SFRSYM    DATA     BYTE      P5
      000000C0H   SFRSYM    DATA     BYTE      P4
      000000B0H   SFRSYM    DATA     BYTE      P3
      000000A0H   SFRSYM    DATA     BYTE      P2
      00000090H   SFRSYM    DATA     BYTE      P1
      00000080H   SFRSYM    DATA     BYTE      P0

      00FF20F5H   BLOCK     CODE     ---       LVL=0
      R15         REGSYM    ---      BYTE      inout
      R10         REGSYM    ---      BYTE      lr
      00FF20FDH   BLOCK     CODE     NEAR LAB  LVL=1
      WR12        REGSYM    ---      INT       T_New
      ---         BLOCKEND  ---      ---       LVL=1
      00FF20F5H   LINE      CODE     ---       #14
      00FF20FDH   LINE      CODE     ---       #15
      00FF20FDH   LINE      CODE     ---       #16
      00FF20FDH   LINE      CODE     ---       #18
      00FF2104H   LINE      CODE     ---       #20
      00FF210BH   LINE      CODE     ---       #22
      00FF2111H   LINE      CODE     ---       #28
      00FF2113H   LINE      CODE     ---       #30
      00FF211EH   LINE      CODE     ---       #31
      00FF2127H   LINE      CODE     ---       #32
      00FF212DH   LINE      CODE     ---       #33
      00FF2134H   LINE      CODE     ---       #34
      00FF213FH   LINE      CODE     ---       #35
      00FF214AH   LINE      CODE     ---       #36
      00FF214CH   LINE      CODE     ---       #38
      00FF2153H   LINE      CODE     ---       #39
      00FF2165H   LINE      CODE     ---       #40
      00FF2170H   LINE      CODE     ---       #41
      00FF2179H   LINE      CODE     ---       #42
      00FF2180H   LINE      CODE     ---       #43
      00FF2183H   LINE      CODE     ---       #44
      00FF2183H   LINE      CODE     ---       #48
      00FF218AH   LINE      CODE     ---       #49
      00FF2191H   LINE      CODE     ---       #50
      00FF2193H   LINE      CODE     ---       #55
      00FF2199H   LINE      CODE     ---       #56
      00FF21A4H   LINE      CODE     ---       #57
      00FF21ADH   LINE      CODE     ---       #58
      00FF21AFH   LINE      CODE     ---       #60
      00FF21B6H   LINE      CODE     ---       #61
      00FF21C8H   LINE      CODE     ---       #62
      00FF21CAH   LINE      CODE     ---       #63
      00FF21D5H   LINE      CODE     ---       #64
      00FF21DEH   LINE      CODE     ---       #65
      00FF21E0H   LINE      CODE     ---       #67
      00FF21E7H   LINE      CODE     ---       #68
      00FF21F9H   LINE      CODE     ---       #69
      00FF21F9H   LINE      CODE     ---       #70
      00FF21FCH   LINE      CODE     ---       #75
      00FF2203H   LINE      CODE     ---       #77
      00FF2209H   LINE      CODE     ---       #80
L251 LINKER/LOCATER V4.66.93.0                                                        04/10/2023  09:21:47  PAGE 71


      00FF220BH   LINE      CODE     ---       #82
      00FF2216H   LINE      CODE     ---       #84
      00FF221CH   LINE      CODE     ---       #85
      00FF2223H   LINE      CODE     ---       #86
      00FF222EH   LINE      CODE     ---       #87
      00FF2239H   LINE      CODE     ---       #88
      00FF223BH   LINE      CODE     ---       #90
      00FF2242H   LINE      CODE     ---       #91
      00FF2254H   LINE      CODE     ---       #92
      00FF225FH   LINE      CODE     ---       #93
      00FF2268H   LINE      CODE     ---       #94
      00FF226FH   LINE      CODE     ---       #95
      00FF2272H   LINE      CODE     ---       #96
      00FF2272H   LINE      CODE     ---       #100
      00FF2279H   LINE      CODE     ---       #101
      00FF2280H   LINE      CODE     ---       #102
      00FF2282H   LINE      CODE     ---       #106
      00FF2288H   LINE      CODE     ---       #107
      00FF2293H   LINE      CODE     ---       #108
      00FF229CH   LINE      CODE     ---       #109
      00FF229EH   LINE      CODE     ---       #111
      00FF22A5H   LINE      CODE     ---       #112
      00FF22B7H   LINE      CODE     ---       #113
      00FF22B9H   LINE      CODE     ---       #114
      00FF22C4H   LINE      CODE     ---       #115
      00FF22CDH   LINE      CODE     ---       #116
      00FF22CFH   LINE      CODE     ---       #118
      00FF22D6H   LINE      CODE     ---       #119
      00FF22E8H   LINE      CODE     ---       #121
      00FF22E8H   LINE      CODE     ---       #122
      00FF22E8H   LINE      CODE     ---       #123
      ---         BLOCKEND  ---      ---       LVL=0

      00FF3431H   BLOCK     CODE     ---       LVL=0
      00FF3431H   LINE      CODE     ---       #138
      00FF3431H   LINE      CODE     ---       #140
      00FF344AH   LINE      CODE     ---       #142
      00FF3450H   LINE      CODE     ---       #144
      00FF3455H   LINE      CODE     ---       #145
      00FF3457H   LINE      CODE     ---       #146
      00FF346BH   LINE      CODE     ---       #147
      00FF347DH   LINE      CODE     ---       #149
      00FF3483H   LINE      CODE     ---       #150
      00FF3483H   LINE      CODE     ---       #152
      00FF3483H   LINE      CODE     ---       #154
      00FF348AH   LINE      CODE     ---       #156
      00FF348FH   LINE      CODE     ---       #157
      00FF3493H   LINE      CODE     ---       #159
      00FF3495H   LINE      CODE     ---       #160
      00FF349EH   LINE      CODE     ---       #162
      ---         BLOCKEND  ---      ---       LVL=0

      ---         MODULE    ---      ---       SPRINTF
      000002FBH   PUBLIC    EDATA    ---       ?SPRINTF?BYTE
      00FF0EAEH   PUBLIC    CODE     NEAR LAB  SPRINTF

      ---         MODULE    ---      ---       ?C?PRNFMT
      00FF0EFBH   PUBLIC    CODE     ---       ?C?PRNFMT

      ---         MODULE    ---      ---       ?C?FPCONVERT
      00FF1318H   PUBLIC    CODE     ---       ?C?FPCONVERT
      00FF13D0H   PUBLIC    CODE     ---       ?C?FPROUND

      ---         MODULE    ---      ---       ?C?FTNPWR
      00FF1443H   PUBLIC    CODE     ---       ?C?FTNPWR
L251 LINKER/LOCATER V4.66.93.0                                                        04/10/2023  09:21:47  PAGE 72



      ---         MODULE    ---      ---       ?C_START
      00FF0000H   PUBLIC    CODE     ---       ?C?STARTUP
      00FF0000H   PUBLIC    CODE     ---       ?C_STARTUP

      ---         MODULE    ---      ---       ?C?INITEDATA
      00FF37ABH   PUBLIC    CODE     ---       ?C?INITEDATA

      ---         MODULE    ---      ---       ?C?SIDIV
      00FF147AH   PUBLIC    CODE     ---       ?C?SIDIV

      ---         MODULE    ---      ---       ?C?LMUL
      00FF14ACH   PUBLIC    CODE     ---       ?C?LMUL

      ---         MODULE    ---      ---       ?C?LIMUL
      00FF14BDH   PUBLIC    CODE     ---       ?C?LIMUL

      ---         MODULE    ---      ---       ?C?ULDIV
      00FF14C8H   PUBLIC    CODE     NEAR LAB  ?C?ULDIV
      00FF14C6H   PUBLIC    CODE     NEAR LAB  ?C?ULIDIV

      ---         MODULE    ---      ---       ?C?SLDIV
      00FF1519H   PUBLIC    CODE     NEAR LAB  ?C?SLDIV

      ---         MODULE    ---      ---       ?C?BMOVENP
      00FF154FH   PUBLIC    CODE     ---       ?C?BMOVENP
      00FF154DH   PUBLIC    CODE     ---       ?C?BMOVENP8

      ---         MODULE    ---      ---       memcpy

      ---         MODULE    ---      ---       ?C?INITEDATA_END
      00FF3D0AH   PUBLIC    HCONST   WORD      ?C?INITEDATA_END

Program Size: data=8.0 edata+hdata=1273 xdata=0 const=1427 code=15050
L251 RUN COMPLETE.  0 WARNING(S),  0 ERROR(S)
